
; __CLANG_OFFLOAD_BUNDLE____START__ sycl-mlisa-cambricon-bang
; ModuleID = 'tensor.cpp'
source_filename = "tensor.cpp"
target datalayout = "e-p:64:64:64-i64:64-v16:16-v32:32-n16:32:64"
target triple = "mlisa-cambricon-bang"

%"class._ZTSN2cl4sycl5rangeILi1EEE.cl::sycl::range" = type { %"class._ZTSN2cl4sycl6detail5arrayILi1EEE.cl::sycl::detail::array" }
%"class._ZTSN2cl4sycl6detail5arrayILi1EEE.cl::sycl::detail::array" = type { [1 x i64] }
%"class._ZTSN2cl4sycl2idILi1EEE.cl::sycl::id" = type { %"class._ZTSN2cl4sycl6detail5arrayILi1EEE.cl::sycl::detail::array" }

$_ZTSZZ4mainENKUlRN2cl4sycl7handlerEE_clES2_E2mm = comdat any

; Function Attrs: noinline norecurse
define weak_odr dso_local void @_ZTSZZ4mainENKUlRN2cl4sycl7handlerEE_clES2_E2mm(float addrspace(101)* %_arg_, %"class._ZTSN2cl4sycl5rangeILi1EEE.cl::sycl::range"* byval(%"class._ZTSN2cl4sycl5rangeILi1EEE.cl::sycl::range") align 8 %_arg_1, %"class._ZTSN2cl4sycl5rangeILi1EEE.cl::sycl::range"* byval(%"class._ZTSN2cl4sycl5rangeILi1EEE.cl::sycl::range") align 8 %_arg_2, %"class._ZTSN2cl4sycl2idILi1EEE.cl::sycl::id"* byval(%"class._ZTSN2cl4sycl2idILi1EEE.cl::sycl::id") align 8 %_arg_3, float addrspace(101)* %_arg_4, %"class._ZTSN2cl4sycl5rangeILi1EEE.cl::sycl::range"* byval(%"class._ZTSN2cl4sycl5rangeILi1EEE.cl::sycl::range") align 8 %_arg_6, %"class._ZTSN2cl4sycl5rangeILi1EEE.cl::sycl::range"* byval(%"class._ZTSN2cl4sycl5rangeILi1EEE.cl::sycl::range") align 8 %_arg_7, %"class._ZTSN2cl4sycl2idILi1EEE.cl::sycl::id"* byval(%"class._ZTSN2cl4sycl2idILi1EEE.cl::sycl::id") align 8 %_arg_8, float addrspace(101)* %_arg_9, %"class._ZTSN2cl4sycl5rangeILi1EEE.cl::sycl::range"* byval(%"class._ZTSN2cl4sycl5rangeILi1EEE.cl::sycl::range") align 8 %_arg_11, %"class._ZTSN2cl4sycl5rangeILi1EEE.cl::sycl::range"* byval(%"class._ZTSN2cl4sycl5rangeILi1EEE.cl::sycl::range") align 8 %_arg_12, %"class._ZTSN2cl4sycl2idILi1EEE.cl::sycl::id"* byval(%"class._ZTSN2cl4sycl2idILi1EEE.cl::sycl::id") align 8 %_arg_13, float addrspace(1)* %_arg_14, %"class._ZTSN2cl4sycl5rangeILi1EEE.cl::sycl::range"* byval(%"class._ZTSN2cl4sycl5rangeILi1EEE.cl::sycl::range") align 8 %_arg_16, %"class._ZTSN2cl4sycl5rangeILi1EEE.cl::sycl::range"* byval(%"class._ZTSN2cl4sycl5rangeILi1EEE.cl::sycl::range") align 8 %_arg_17, %"class._ZTSN2cl4sycl2idILi1EEE.cl::sycl::id"* byval(%"class._ZTSN2cl4sycl2idILi1EEE.cl::sycl::id") align 8 %_arg_18, float addrspace(1)* %_arg_19, %"class._ZTSN2cl4sycl5rangeILi1EEE.cl::sycl::range"* byval(%"class._ZTSN2cl4sycl5rangeILi1EEE.cl::sycl::range") align 8 %_arg_21, %"class._ZTSN2cl4sycl5rangeILi1EEE.cl::sycl::range"* byval(%"class._ZTSN2cl4sycl5rangeILi1EEE.cl::sycl::range") align 8 %_arg_22, %"class._ZTSN2cl4sycl2idILi1EEE.cl::sycl::id"* byval(%"class._ZTSN2cl4sycl2idILi1EEE.cl::sycl::id") align 8 %_arg_23, float addrspace(1)* %_arg_24, %"class._ZTSN2cl4sycl5rangeILi1EEE.cl::sycl::range"* byval(%"class._ZTSN2cl4sycl5rangeILi1EEE.cl::sycl::range") align 8 %_arg_26, %"class._ZTSN2cl4sycl5rangeILi1EEE.cl::sycl::range"* byval(%"class._ZTSN2cl4sycl5rangeILi1EEE.cl::sycl::range") align 8 %_arg_27, %"class._ZTSN2cl4sycl2idILi1EEE.cl::sycl::id"* byval(%"class._ZTSN2cl4sycl2idILi1EEE.cl::sycl::id") align 8 %_arg_28) local_unnamed_addr #0 comdat !kernel_arg_buffer_location !6 {
entry:
  %0 = getelementptr inbounds %"class._ZTSN2cl4sycl2idILi1EEE.cl::sycl::id", %"class._ZTSN2cl4sycl2idILi1EEE.cl::sycl::id"* %_arg_18, i64 0, i32 0, i32 0, i64 0
  %1 = load i64, i64* %0, align 8
  %add.ptr.i73 = getelementptr inbounds float, float addrspace(1)* %_arg_14, i64 %1
  %2 = getelementptr inbounds %"class._ZTSN2cl4sycl2idILi1EEE.cl::sycl::id", %"class._ZTSN2cl4sycl2idILi1EEE.cl::sycl::id"* %_arg_23, i64 0, i32 0, i32 0, i64 0
  %3 = load i64, i64* %2, align 8
  %add.ptr.i62 = getelementptr inbounds float, float addrspace(1)* %_arg_19, i64 %3
  %4 = getelementptr inbounds %"class._ZTSN2cl4sycl2idILi1EEE.cl::sycl::id", %"class._ZTSN2cl4sycl2idILi1EEE.cl::sycl::id"* %_arg_28, i64 0, i32 0, i32 0, i64 0
  %5 = load i64, i64* %4, align 8
  %add.ptr.i = getelementptr inbounds float, float addrspace(1)* %_arg_24, i64 %5
  br label %for.body.i

for.cond17.preheader.i:                           ; preds = %for.body.i
  %6 = bitcast float addrspace(101)* %_arg_9 to i8 addrspace(101)*
  %7 = addrspacecast i8 addrspace(101)* %6 to i8*
  %8 = bitcast float addrspace(101)* %_arg_ to i8 addrspace(101)*
  %9 = addrspacecast i8 addrspace(101)* %8 to i8*
  %10 = bitcast float addrspace(101)* %_arg_4 to i8 addrspace(101)*
  %11 = addrspacecast i8 addrspace(101)* %10 to i8*
  br label %for.body20.i

for.body.i:                                       ; preds = %for.body.i, %entry
  %indvars.iv38.i = phi i64 [ 0, %entry ], [ %indvars.iv.next39.i, %for.body.i ]
  %arrayidx.i19.i = getelementptr inbounds float, float addrspace(1)* %add.ptr.i73, i64 %indvars.iv38.i
  %arrayidx.ascast.i20.i = addrspacecast float addrspace(1)* %arrayidx.i19.i to float*
  %12 = load float, float* %arrayidx.ascast.i20.i, align 4, !tbaa !7
  %arrayidx.i15.i = getelementptr inbounds float, float addrspace(101)* %_arg_, i64 %indvars.iv38.i
  %arrayidx.ascast.i16.i = addrspacecast float addrspace(101)* %arrayidx.i15.i to float*
  store float %12, float* %arrayidx.ascast.i16.i, align 4, !tbaa !7
  %arrayidx.i11.i = getelementptr inbounds float, float addrspace(1)* %add.ptr.i62, i64 %indvars.iv38.i
  %arrayidx.ascast.i12.i = addrspacecast float addrspace(1)* %arrayidx.i11.i to float*
  %13 = load float, float* %arrayidx.ascast.i12.i, align 4, !tbaa !7
  %arrayidx.i7.i = getelementptr inbounds float, float addrspace(101)* %_arg_4, i64 %indvars.iv38.i
  %arrayidx.ascast.i8.i = addrspacecast float addrspace(101)* %arrayidx.i7.i to float*
  store float %13, float* %arrayidx.ascast.i8.i, align 4, !tbaa !7
  %indvars.iv.next39.i = add nuw nsw i64 %indvars.iv38.i, 1
  %exitcond40.not.i = icmp eq i64 %indvars.iv.next39.i, 2048
  br i1 %exitcond40.not.i, label %for.cond17.preheader.i, label %for.body.i, !llvm.loop !11

for.body20.i:                                     ; preds = %for.body20.i, %for.cond17.preheader.i
  %k.035.i = phi i32 [ 0, %for.cond17.preheader.i ], [ %inc22.i, %for.body20.i ]
  tail call void @llvm.mlvm.stream.add.f32(i8* %7, i8* %9, i8* %11, i32 2048) #1
  %inc22.i = add nuw nsw i32 %k.035.i, 1
  %exitcond37.not.i = icmp eq i32 %inc22.i, 10000
  br i1 %exitcond37.not.i, label %for.body28.i, label %for.body20.i, !llvm.loop !13

for.body28.i:                                     ; preds = %for.body20.i, %for.body28.i
  %indvars.iv.i = phi i64 [ %indvars.iv.next.i, %for.body28.i ], [ 0, %for.body20.i ]
  %arrayidx.i4.i = getelementptr inbounds float, float addrspace(101)* %_arg_9, i64 %indvars.iv.i
  %arrayidx.ascast.i5.i = addrspacecast float addrspace(101)* %arrayidx.i4.i to float*
  %14 = load float, float* %arrayidx.ascast.i5.i, align 4, !tbaa !7
  %arrayidx.i.i = getelementptr inbounds float, float addrspace(1)* %add.ptr.i, i64 %indvars.iv.i
  %arrayidx.ascast.i.i = addrspacecast float addrspace(1)* %arrayidx.i.i to float*
  store float %14, float* %arrayidx.ascast.i.i, align 4, !tbaa !7
  %indvars.iv.next.i = add nuw nsw i64 %indvars.iv.i, 1
  %exitcond.not.i = icmp eq i64 %indvars.iv.next.i, 2048
  br i1 %exitcond.not.i, label %_ZZZ4mainENKUlRN2cl4sycl7handlerEE_clES2_ENKUlNS0_2idILi1EEEE_clES5_.exit, label %for.body28.i, !llvm.loop !14

_ZZZ4mainENKUlRN2cl4sycl7handlerEE_clES2_ENKUlNS0_2idILi1EEEE_clES5_.exit: ; preds = %for.body28.i
  ret void
}

; Function Attrs: nounwind
declare void @llvm.mlvm.stream.add.f32(i8*, i8*, i8*, i32) #1

attributes #0 = { noinline norecurse "frame-pointer"="all" "min-legal-vector-width"="0" "no-trapping-math"="true" "stack-protector-buffer-size"="8" "sycl-module-id"="tensor.cpp" "target-cpu"="mtp_270" "uniform-work-group-size"="true" }
attributes #1 = { nounwind }

!mlvm.annotations = !{!0}
!llvm.module.flags = !{!1, !2}
!opencl.spir.version = !{!3}
!spirv.Source = !{!4}
!llvm.ident = !{!5, !5, !5, !5}

!0 = !{void (float addrspace(101)*, %"class._ZTSN2cl4sycl5rangeILi1EEE.cl::sycl::range"*, %"class._ZTSN2cl4sycl5rangeILi1EEE.cl::sycl::range"*, %"class._ZTSN2cl4sycl2idILi1EEE.cl::sycl::id"*, float addrspace(101)*, %"class._ZTSN2cl4sycl5rangeILi1EEE.cl::sycl::range"*, %"class._ZTSN2cl4sycl5rangeILi1EEE.cl::sycl::range"*, %"class._ZTSN2cl4sycl2idILi1EEE.cl::sycl::id"*, float addrspace(101)*, %"class._ZTSN2cl4sycl5rangeILi1EEE.cl::sycl::range"*, %"class._ZTSN2cl4sycl5rangeILi1EEE.cl::sycl::range"*, %"class._ZTSN2cl4sycl2idILi1EEE.cl::sycl::id"*, float addrspace(1)*, %"class._ZTSN2cl4sycl5rangeILi1EEE.cl::sycl::range"*, %"class._ZTSN2cl4sycl5rangeILi1EEE.cl::sycl::range"*, %"class._ZTSN2cl4sycl2idILi1EEE.cl::sycl::id"*, float addrspace(1)*, %"class._ZTSN2cl4sycl5rangeILi1EEE.cl::sycl::range"*, %"class._ZTSN2cl4sycl5rangeILi1EEE.cl::sycl::range"*, %"class._ZTSN2cl4sycl2idILi1EEE.cl::sycl::id"*, float addrspace(1)*, %"class._ZTSN2cl4sycl5rangeILi1EEE.cl::sycl::range"*, %"class._ZTSN2cl4sycl5rangeILi1EEE.cl::sycl::range"*, %"class._ZTSN2cl4sycl2idILi1EEE.cl::sycl::id"*)* @_ZTSZZ4mainENKUlRN2cl4sycl7handlerEE_clES2_E2mm, !"kernel", i32 1}
!1 = !{i32 1, !"wchar_size", i32 4}
!2 = !{i32 7, !"frame-pointer", i32 2}
!3 = !{i32 1, i32 2}
!4 = !{i32 4, i32 100000}
!5 = !{!"clang version 13.0.0 (ssh://git@gitlab.gxnzx12729.ict:2222/wangziyang/llvm-mlu.git d0c71a1fad548e0277fdb386600367820624f519)"}
!6 = !{i32 -1, i32 -1, i32 -1, i32 -1, i32 -1, i32 -1, i32 -1, i32 -1, i32 -1, i32 -1, i32 -1, i32 -1, i32 -1, i32 -1, i32 -1, i32 -1, i32 -1, i32 -1, i32 -1, i32 -1, i32 -1, i32 -1, i32 -1, i32 -1}
!7 = !{!8, !8, i64 0}
!8 = !{!"float", !9, i64 0}
!9 = !{!"omnipotent char", !10, i64 0}
!10 = !{!"Simple C++ TBAA"}
!11 = distinct !{!11, !12}
!12 = !{!"llvm.loop.mustprogress"}
!13 = distinct !{!13, !12}
!14 = distinct !{!14, !12}

; __CLANG_OFFLOAD_BUNDLE____END__ sycl-mlisa-cambricon-bang

; __CLANG_OFFLOAD_BUNDLE____START__ host-x86_64-unknown-linux-gnu
; ModuleID = 'tensor.cpp'
source_filename = "tensor.cpp"
target datalayout = "e-m:e-p270:32:32-p271:32:32-p272:64:64-i64:64-f80:128-n8:16:32:64-S128"
target triple = "x86_64-unknown-linux-gnu"

%"class.std::ios_base::Init" = type { i8 }
%"struct.cl::sycl::mode_tag_t" = type { i8 }
%"class.std::basic_ostream" = type { i32 (...)**, %"class.std::basic_ios" }
%"class.std::basic_ios" = type { %"class.std::ios_base", %"class.std::basic_ostream"*, i8, i8, %"class.std::basic_streambuf"*, %"class.std::ctype"*, %"class.std::num_put"*, %"class.std::num_get"* }
%"class.std::ios_base" = type { i32 (...)**, i64, i64, i32, i32, i32, %"struct.std::ios_base::_Callback_list"*, %"struct.std::ios_base::_Words", [8 x %"struct.std::ios_base::_Words"], i32, %"struct.std::ios_base::_Words"*, %"class.std::locale" }
%"struct.std::ios_base::_Callback_list" = type { %"struct.std::ios_base::_Callback_list"*, void (i32, %"class.std::ios_base"*, i32)*, i32, i32 }
%"struct.std::ios_base::_Words" = type { i8*, i64 }
%"class.std::locale" = type { %"class.std::locale::_Impl"* }
%"class.std::locale::_Impl" = type { i32, %"class.std::locale::facet"**, i64, %"class.std::locale::facet"**, i8** }
%"class.std::locale::facet" = type <{ i32 (...)**, i32, [4 x i8] }>
%"class.std::basic_streambuf" = type { i32 (...)**, i8*, i8*, i8*, i8*, i8*, i8*, %"class.std::locale" }
%"class.std::ctype" = type <{ %"class.std::locale::facet.base", [4 x i8], %struct.__locale_struct*, i8, [7 x i8], i32*, i32*, i16*, i8, [256 x i8], [256 x i8], i8, [6 x i8] }>
%"class.std::locale::facet.base" = type <{ i32 (...)**, i32 }>
%struct.__locale_struct = type { [13 x %struct.__locale_data*], i16*, i32*, i32*, [13 x i8*] }
%struct.__locale_data = type opaque
%"class.std::num_put" = type { %"class.std::locale::facet.base", [4 x i8] }
%"class.std::num_get" = type { %"class.std::locale::facet.base", [4 x i8] }
%"struct.cl::sycl::mode_tag_t.155" = type { i8 }
%"struct.cl::sycl::detail::kernel_param_desc_t" = type { i32, i32, i32 }
%struct.timeval = type { i64, i64 }
%"class.cl::sycl::gpu_selector" = type { %"class.cl::sycl::device_selector" }
%"class.cl::sycl::device_selector" = type { i32 (...)** }
%"class.cl::sycl::queue" = type { %"class.std::shared_ptr" }
%"class.std::shared_ptr" = type { %"class.std::__shared_ptr" }
%"class.std::__shared_ptr" = type { %"class.cl::sycl::detail::queue_impl"*, %"class.std::__shared_count" }
%"class.cl::sycl::detail::queue_impl" = type opaque
%"class.std::__shared_count" = type { %"class.std::_Sp_counted_base"* }
%"class.std::_Sp_counted_base" = type { i32 (...)**, i32, i32 }
%"class.cl::sycl::property_list" = type { %"class.cl::sycl::detail::PropertyListBase" }
%"class.cl::sycl::detail::PropertyListBase" = type { %"class.std::bitset", %"class.std::vector" }
%"class.std::bitset" = type { %"struct.std::_Base_bitset" }
%"struct.std::_Base_bitset" = type { i64 }
%"class.std::vector" = type { %"struct.std::_Vector_base" }
%"struct.std::_Vector_base" = type { %"struct.std::_Vector_base<std::shared_ptr<cl::sycl::detail::PropertyWithDataBase>, std::allocator<std::shared_ptr<cl::sycl::detail::PropertyWithDataBase>>>::_Vector_impl" }
%"struct.std::_Vector_base<std::shared_ptr<cl::sycl::detail::PropertyWithDataBase>, std::allocator<std::shared_ptr<cl::sycl::detail::PropertyWithDataBase>>>::_Vector_impl" = type { %"struct.std::_Vector_base<std::shared_ptr<cl::sycl::detail::PropertyWithDataBase>, std::allocator<std::shared_ptr<cl::sycl::detail::PropertyWithDataBase>>>::_Vector_impl_data" }
%"struct.std::_Vector_base<std::shared_ptr<cl::sycl::detail::PropertyWithDataBase>, std::allocator<std::shared_ptr<cl::sycl::detail::PropertyWithDataBase>>>::_Vector_impl_data" = type { %"class.std::shared_ptr.0"*, %"class.std::shared_ptr.0"*, %"class.std::shared_ptr.0"* }
%"class.std::shared_ptr.0" = type { %"class.std::__shared_ptr.1" }
%"class.std::__shared_ptr.1" = type { %"class.cl::sycl::detail::PropertyWithDataBase"*, %"class.std::__shared_count" }
%"class.cl::sycl::detail::PropertyWithDataBase" = type <{ i32 (...)**, i32, [4 x i8] }>
%"class.cl::sycl::range" = type { %"class.cl::sycl::detail::array" }
%"class.cl::sycl::detail::array" = type { [1 x i64] }
%"class.cl::sycl::buffer" = type <{ %"class.std::shared_ptr.3", %"class.cl::sycl::range", i64, i8, [7 x i8] }>
%"class.std::shared_ptr.3" = type { %"class.std::__shared_ptr.4" }
%"class.std::__shared_ptr.4" = type { %"class.cl::sycl::detail::buffer_impl"*, %"class.std::__shared_count" }
%"class.cl::sycl::detail::buffer_impl" = type { %"class.cl::sycl::detail::SYCLMemObjT" }
%"class.cl::sycl::detail::SYCLMemObjT" = type { %"class.cl::sycl::detail::SYCLMemObjI", %"class.std::unique_ptr", %"class.cl::sycl::property_list", %"class.std::shared_ptr.11", %"class.std::shared_ptr.14", %struct._cl_mem*, i8, i8, i8, i64, i8*, i8*, %"class.std::function", %"class.std::shared_ptr.17" }
%"class.cl::sycl::detail::SYCLMemObjI" = type { i32 (...)**, %"class.std::shared_ptr.6" }
%"class.std::shared_ptr.6" = type { %"class.std::__shared_ptr.7" }
%"class.std::__shared_ptr.7" = type { %"struct.cl::sycl::detail::MemObjRecord"*, %"class.std::__shared_count" }
%"struct.cl::sycl::detail::MemObjRecord" = type opaque
%"class.std::unique_ptr" = type { %"class.std::__uniq_ptr_impl" }
%"class.std::__uniq_ptr_impl" = type { %"class.std::tuple" }
%"class.std::tuple" = type { %"struct.std::_Tuple_impl" }
%"struct.std::_Tuple_impl" = type { %"struct.std::_Head_base.10" }
%"struct.std::_Head_base.10" = type { %"class.cl::sycl::detail::SYCLMemObjAllocator"* }
%"class.cl::sycl::detail::SYCLMemObjAllocator" = type { i32 (...)** }
%"class.std::shared_ptr.11" = type { %"class.std::__shared_ptr.12" }
%"class.std::__shared_ptr.12" = type { %"class.cl::sycl::detail::event_impl"*, %"class.std::__shared_count" }
%"class.cl::sycl::detail::event_impl" = type opaque
%"class.std::shared_ptr.14" = type { %"class.std::__shared_ptr.15" }
%"class.std::__shared_ptr.15" = type { %"class.cl::sycl::detail::context_impl"*, %"class.std::__shared_count" }
%"class.cl::sycl::detail::context_impl" = type opaque
%struct._cl_mem = type opaque
%"class.std::function" = type { %"class.std::_Function_base", void (%"union.std::_Any_data"*)* }
%"class.std::_Function_base" = type { %"union.std::_Any_data", i1 (%"union.std::_Any_data"*, %"union.std::_Any_data"*, i32)* }
%"union.std::_Any_data" = type { %"union.std::_Nocopy_types" }
%"union.std::_Nocopy_types" = type { { i64, i64 } }
%"class.std::shared_ptr.17" = type { %"class.std::__shared_ptr.18" }
%"class.std::__shared_ptr.18" = type { i8*, %"class.std::__shared_count" }
%"class.cl::sycl::event" = type { %"class.std::shared_ptr.11" }
%class.anon = type { %"class.cl::sycl::buffer"*, %"class.cl::sycl::buffer"*, %"class.cl::sycl::buffer"*, %"class.cl::sycl::buffer"* }
%"struct.cl::sycl::detail::code_location" = type { i8*, i8*, i64, i64 }
%"class.cl::sycl::host_accessor" = type { %"class.cl::sycl::accessor" }
%"class.cl::sycl::accessor" = type { %"class.cl::sycl::detail::AccessorBaseHost", [16 x i8] }
%"class.cl::sycl::detail::AccessorBaseHost" = type { %"class.std::shared_ptr.20" }
%"class.std::shared_ptr.20" = type { %"class.std::__shared_ptr.21" }
%"class.std::__shared_ptr.21" = type { %"class.cl::sycl::detail::AccessorImplHost"*, %"class.std::__shared_count" }
%"class.cl::sycl::detail::AccessorImplHost" = type <{ %"class.cl::sycl::id", %"class.cl::sycl::range.24", %"class.cl::sycl::range.24", i32, [4 x i8], %"class.cl::sycl::detail::SYCLMemObjI"*, i32, i32, i32, i8, [3 x i8], i8*, %"class.cl::sycl::detail::Command"*, i8, i8, [6 x i8] }>
%"class.cl::sycl::id" = type { %"class.cl::sycl::detail::array.23" }
%"class.cl::sycl::detail::array.23" = type { [3 x i64] }
%"class.cl::sycl::range.24" = type { %"class.cl::sycl::detail::array.23" }
%"class.cl::sycl::detail::Command" = type opaque
%"class.cl::sycl::id.25" = type { %"class.cl::sycl::detail::array" }
%"class.cl::sycl::device" = type { %"class.std::shared_ptr.26" }
%"class.std::shared_ptr.26" = type { %"class.std::__shared_ptr.27" }
%"class.std::__shared_ptr.27" = type { %"class.cl::sycl::detail::device_impl"*, %"class.std::__shared_count" }
%"class.cl::sycl::detail::device_impl" = type opaque
%"class.std::function.29" = type { %"class.std::_Function_base", void (%"union.std::_Any_data"*, %"class.cl::sycl::exception_list"*)* }
%"class.cl::sycl::exception_list" = type { %"class.std::vector.31" }
%"class.std::vector.31" = type { %"struct.std::_Vector_base.32" }
%"struct.std::_Vector_base.32" = type { %"struct.std::_Vector_base<std::__exception_ptr::exception_ptr, std::allocator<std::__exception_ptr::exception_ptr>>::_Vector_impl" }
%"struct.std::_Vector_base<std::__exception_ptr::exception_ptr, std::allocator<std::__exception_ptr::exception_ptr>>::_Vector_impl" = type { %"struct.std::_Vector_base<std::__exception_ptr::exception_ptr, std::allocator<std::__exception_ptr::exception_ptr>>::_Vector_impl_data" }
%"struct.std::_Vector_base<std::__exception_ptr::exception_ptr, std::allocator<std::__exception_ptr::exception_ptr>>::_Vector_impl_data" = type { %"class.std::__exception_ptr::exception_ptr"*, %"class.std::__exception_ptr::exception_ptr"*, %"class.std::__exception_ptr::exception_ptr"* }
%"class.std::__exception_ptr::exception_ptr" = type { i8* }
%"class.std::unique_ptr.36" = type { %"class.std::__uniq_ptr_impl.37" }
%"class.std::__uniq_ptr_impl.37" = type { %"class.std::tuple.38" }
%"class.std::tuple.38" = type { %"struct.std::_Tuple_impl.39" }
%"struct.std::_Tuple_impl.39" = type { %"struct.std::_Head_base.44" }
%"struct.std::_Head_base.44" = type { %"class.cl::sycl::detail::SYCLMemObjAllocatorHolder"* }
%"class.cl::sycl::detail::SYCLMemObjAllocatorHolder" = type { %"class.cl::sycl::detail::SYCLMemObjAllocator", %"class.cl::sycl::detail::aligned_allocator", i64 }
%"class.cl::sycl::detail::aligned_allocator" = type { i64 }
%"class.std::function.58" = type { %"class.std::_Function_base", void (%"union.std::_Any_data"*, %"class.cl::sycl::handler"*)* }
%"class.cl::sycl::handler" = type { %"class.std::shared_ptr", %"class.std::vector.61", %"class.std::vector.68", %"class.std::vector.73", %"class.std::vector.81", %"class.std::vector.89", %"class.std::vector.94", %"class.std::vector.94", %"class.std::vector.99", %"class.cl::sycl::detail::NDRDescT", %"class.std::__cxx11::basic_string", %"class.std::shared_ptr.104", i32, i8*, i8*, i64, %"class.std::vector.66", %"class.std::unique_ptr.107", %"class.std::unique_ptr.116", i64, %"class.std::unique_ptr.133", %"class.std::vector.145", %"class.std::vector.145", i8, %"struct.cl::sycl::detail::code_location", i8, %"class.cl::sycl::event" }
%"class.std::vector.61" = type { %"struct.std::_Vector_base.62" }
%"struct.std::_Vector_base.62" = type { %"struct.std::_Vector_base<std::vector<char>, std::allocator<std::vector<char>>>::_Vector_impl" }
%"struct.std::_Vector_base<std::vector<char>, std::allocator<std::vector<char>>>::_Vector_impl" = type { %"struct.std::_Vector_base<std::vector<char>, std::allocator<std::vector<char>>>::_Vector_impl_data" }
%"struct.std::_Vector_base<std::vector<char>, std::allocator<std::vector<char>>>::_Vector_impl_data" = type { %"class.std::vector.66"*, %"class.std::vector.66"*, %"class.std::vector.66"* }
%"class.std::vector.68" = type { %"struct.std::_Vector_base.69" }
%"struct.std::_Vector_base.69" = type { %"struct.std::_Vector_base<std::shared_ptr<cl::sycl::detail::AccessorImplHost>, std::allocator<std::shared_ptr<cl::sycl::detail::AccessorImplHost>>>::_Vector_impl" }
%"struct.std::_Vector_base<std::shared_ptr<cl::sycl::detail::AccessorImplHost>, std::allocator<std::shared_ptr<cl::sycl::detail::AccessorImplHost>>>::_Vector_impl" = type { %"struct.std::_Vector_base<std::shared_ptr<cl::sycl::detail::AccessorImplHost>, std::allocator<std::shared_ptr<cl::sycl::detail::AccessorImplHost>>>::_Vector_impl_data" }
%"struct.std::_Vector_base<std::shared_ptr<cl::sycl::detail::AccessorImplHost>, std::allocator<std::shared_ptr<cl::sycl::detail::AccessorImplHost>>>::_Vector_impl_data" = type { %"class.std::shared_ptr.20"*, %"class.std::shared_ptr.20"*, %"class.std::shared_ptr.20"* }
%"class.std::vector.73" = type { %"struct.std::_Vector_base.74" }
%"struct.std::_Vector_base.74" = type { %"struct.std::_Vector_base<std::shared_ptr<cl::sycl::detail::LocalAccessorImplHost>, std::allocator<std::shared_ptr<cl::sycl::detail::LocalAccessorImplHost>>>::_Vector_impl" }
%"struct.std::_Vector_base<std::shared_ptr<cl::sycl::detail::LocalAccessorImplHost>, std::allocator<std::shared_ptr<cl::sycl::detail::LocalAccessorImplHost>>>::_Vector_impl" = type { %"struct.std::_Vector_base<std::shared_ptr<cl::sycl::detail::LocalAccessorImplHost>, std::allocator<std::shared_ptr<cl::sycl::detail::LocalAccessorImplHost>>>::_Vector_impl_data" }
%"struct.std::_Vector_base<std::shared_ptr<cl::sycl::detail::LocalAccessorImplHost>, std::allocator<std::shared_ptr<cl::sycl::detail::LocalAccessorImplHost>>>::_Vector_impl_data" = type { %"class.std::shared_ptr.78"*, %"class.std::shared_ptr.78"*, %"class.std::shared_ptr.78"* }
%"class.std::shared_ptr.78" = type { %"class.std::__shared_ptr.79" }
%"class.std::__shared_ptr.79" = type { %"class.cl::sycl::detail::LocalAccessorImplHost"*, %"class.std::__shared_count" }
%"class.cl::sycl::detail::LocalAccessorImplHost" = type { %"class.cl::sycl::range.24", i32, i32, %"class.std::vector.66" }
%"class.std::vector.81" = type { %"struct.std::_Vector_base.82" }
%"struct.std::_Vector_base.82" = type { %"struct.std::_Vector_base<std::shared_ptr<cl::sycl::detail::stream_impl>, std::allocator<std::shared_ptr<cl::sycl::detail::stream_impl>>>::_Vector_impl" }
%"struct.std::_Vector_base<std::shared_ptr<cl::sycl::detail::stream_impl>, std::allocator<std::shared_ptr<cl::sycl::detail::stream_impl>>>::_Vector_impl" = type { %"struct.std::_Vector_base<std::shared_ptr<cl::sycl::detail::stream_impl>, std::allocator<std::shared_ptr<cl::sycl::detail::stream_impl>>>::_Vector_impl_data" }
%"struct.std::_Vector_base<std::shared_ptr<cl::sycl::detail::stream_impl>, std::allocator<std::shared_ptr<cl::sycl::detail::stream_impl>>>::_Vector_impl_data" = type { %"class.std::shared_ptr.86"*, %"class.std::shared_ptr.86"*, %"class.std::shared_ptr.86"* }
%"class.std::shared_ptr.86" = type { %"class.std::__shared_ptr.87" }
%"class.std::__shared_ptr.87" = type { %"class.cl::sycl::detail::stream_impl"*, %"class.std::__shared_count" }
%"class.cl::sycl::detail::stream_impl" = type opaque
%"class.std::vector.89" = type { %"struct.std::_Vector_base.90" }
%"struct.std::_Vector_base.90" = type { %"struct.std::_Vector_base<std::shared_ptr<const void>, std::allocator<std::shared_ptr<const void>>>::_Vector_impl" }
%"struct.std::_Vector_base<std::shared_ptr<const void>, std::allocator<std::shared_ptr<const void>>>::_Vector_impl" = type { %"struct.std::_Vector_base<std::shared_ptr<const void>, std::allocator<std::shared_ptr<const void>>>::_Vector_impl_data" }
%"struct.std::_Vector_base<std::shared_ptr<const void>, std::allocator<std::shared_ptr<const void>>>::_Vector_impl_data" = type { %"class.std::shared_ptr.17"*, %"class.std::shared_ptr.17"*, %"class.std::shared_ptr.17"* }
%"class.std::vector.94" = type { %"struct.std::_Vector_base.95" }
%"struct.std::_Vector_base.95" = type { %"struct.std::_Vector_base<cl::sycl::detail::ArgDesc, std::allocator<cl::sycl::detail::ArgDesc>>::_Vector_impl" }
%"struct.std::_Vector_base<cl::sycl::detail::ArgDesc, std::allocator<cl::sycl::detail::ArgDesc>>::_Vector_impl" = type { %"struct.std::_Vector_base<cl::sycl::detail::ArgDesc, std::allocator<cl::sycl::detail::ArgDesc>>::_Vector_impl_data" }
%"struct.std::_Vector_base<cl::sycl::detail::ArgDesc, std::allocator<cl::sycl::detail::ArgDesc>>::_Vector_impl_data" = type { %"class.cl::sycl::detail::ArgDesc"*, %"class.cl::sycl::detail::ArgDesc"*, %"class.cl::sycl::detail::ArgDesc"* }
%"class.cl::sycl::detail::ArgDesc" = type { i32, i8*, i32, i32 }
%"class.std::vector.99" = type { %"struct.std::_Vector_base.100" }
%"struct.std::_Vector_base.100" = type { %"struct.std::_Vector_base<cl::sycl::detail::AccessorImplHost *, std::allocator<cl::sycl::detail::AccessorImplHost *>>::_Vector_impl" }
%"struct.std::_Vector_base<cl::sycl::detail::AccessorImplHost *, std::allocator<cl::sycl::detail::AccessorImplHost *>>::_Vector_impl" = type { %"struct.std::_Vector_base<cl::sycl::detail::AccessorImplHost *, std::allocator<cl::sycl::detail::AccessorImplHost *>>::_Vector_impl_data" }
%"struct.std::_Vector_base<cl::sycl::detail::AccessorImplHost *, std::allocator<cl::sycl::detail::AccessorImplHost *>>::_Vector_impl_data" = type { %"class.cl::sycl::detail::AccessorImplHost"**, %"class.cl::sycl::detail::AccessorImplHost"**, %"class.cl::sycl::detail::AccessorImplHost"** }
%"class.cl::sycl::detail::NDRDescT" = type { %"class.cl::sycl::range.24", %"class.cl::sycl::range.24", %"class.cl::sycl::id", %"class.cl::sycl::range.24", i64 }
%"class.std::__cxx11::basic_string" = type { %"struct.std::__cxx11::basic_string<char>::_Alloc_hider", i64, %union.anon }
%"struct.std::__cxx11::basic_string<char>::_Alloc_hider" = type { i8* }
%union.anon = type { i64, [8 x i8] }
%"class.std::shared_ptr.104" = type { %"class.std::__shared_ptr.105" }
%"class.std::__shared_ptr.105" = type { %"class.cl::sycl::detail::kernel_impl"*, %"class.std::__shared_count" }
%"class.cl::sycl::detail::kernel_impl" = type opaque
%"class.std::vector.66" = type { %"struct.std::_Vector_base.67" }
%"struct.std::_Vector_base.67" = type { %"struct.std::_Vector_base<char, std::allocator<char>>::_Vector_impl" }
%"struct.std::_Vector_base<char, std::allocator<char>>::_Vector_impl" = type { %"struct.std::_Vector_base<char, std::allocator<char>>::_Vector_impl_data" }
%"struct.std::_Vector_base<char, std::allocator<char>>::_Vector_impl_data" = type { i8*, i8*, i8* }
%"class.std::unique_ptr.107" = type { %"class.std::__uniq_ptr_impl.108" }
%"class.std::__uniq_ptr_impl.108" = type { %"class.std::tuple.109" }
%"class.std::tuple.109" = type { %"struct.std::_Tuple_impl.110" }
%"struct.std::_Tuple_impl.110" = type { %"struct.std::_Head_base.115" }
%"struct.std::_Head_base.115" = type { %"class.cl::sycl::detail::HostKernelBase"* }
%"class.cl::sycl::detail::HostKernelBase" = type { i32 (...)** }
%"class.std::unique_ptr.116" = type { %"class.std::__uniq_ptr_impl.117" }
%"class.std::__uniq_ptr_impl.117" = type { %"class.std::tuple.118" }
%"class.std::tuple.118" = type { %"struct.std::_Tuple_impl.119" }
%"struct.std::_Tuple_impl.119" = type { %"struct.std::_Head_base.124" }
%"struct.std::_Head_base.124" = type { %"class.cl::sycl::detail::HostTask"* }
%"class.cl::sycl::detail::HostTask" = type { %"class.std::function", %"class.std::function.125" }
%"class.std::function.125" = type { %"class.std::_Function_base", void (%"union.std::_Any_data"*, %"class.cl::sycl::interop_handle"*)* }
%"class.cl::sycl::interop_handle" = type { %"class.std::shared_ptr", %"class.std::shared_ptr.26", %"class.std::shared_ptr.14", %"class.std::vector.128" }
%"class.std::vector.128" = type { %"struct.std::_Vector_base.129" }
%"struct.std::_Vector_base.129" = type { %"struct.std::_Vector_base<std::pair<cl::sycl::detail::AccessorImplHost *, _pi_mem *>, std::allocator<std::pair<cl::sycl::detail::AccessorImplHost *, _pi_mem *>>>::_Vector_impl" }
%"struct.std::_Vector_base<std::pair<cl::sycl::detail::AccessorImplHost *, _pi_mem *>, std::allocator<std::pair<cl::sycl::detail::AccessorImplHost *, _pi_mem *>>>::_Vector_impl" = type { %"struct.std::_Vector_base<std::pair<cl::sycl::detail::AccessorImplHost *, _pi_mem *>, std::allocator<std::pair<cl::sycl::detail::AccessorImplHost *, _pi_mem *>>>::_Vector_impl_data" }
%"struct.std::_Vector_base<std::pair<cl::sycl::detail::AccessorImplHost *, _pi_mem *>, std::allocator<std::pair<cl::sycl::detail::AccessorImplHost *, _pi_mem *>>>::_Vector_impl_data" = type { %"struct.std::pair"*, %"struct.std::pair"*, %"struct.std::pair"* }
%"struct.std::pair" = type { %"class.cl::sycl::detail::AccessorImplHost"*, %struct._pi_mem* }
%struct._pi_mem = type opaque
%"class.std::unique_ptr.133" = type { %"class.std::__uniq_ptr_impl.134" }
%"class.std::__uniq_ptr_impl.134" = type { %"class.std::tuple.135" }
%"class.std::tuple.135" = type { %"struct.std::_Tuple_impl.136" }
%"struct.std::_Tuple_impl.136" = type { %"struct.std::_Head_base.141" }
%"struct.std::_Head_base.141" = type { %"class.cl::sycl::detail::InteropTask"* }
%"class.cl::sycl::detail::InteropTask" = type { %"class.std::function.142" }
%"class.std::function.142" = type { %"class.std::_Function_base", void (%"union.std::_Any_data"*, %"class.cl::sycl::interop_handler"*)* }
%"class.cl::sycl::interop_handler" = type { %"class.std::shared_ptr", %"class.std::vector.128" }
%"class.std::vector.145" = type { %"struct.std::_Vector_base.146" }
%"struct.std::_Vector_base.146" = type { %"struct.std::_Vector_base<std::shared_ptr<cl::sycl::detail::event_impl>, std::allocator<std::shared_ptr<cl::sycl::detail::event_impl>>>::_Vector_impl" }
%"struct.std::_Vector_base<std::shared_ptr<cl::sycl::detail::event_impl>, std::allocator<std::shared_ptr<cl::sycl::detail::event_impl>>>::_Vector_impl" = type { %"struct.std::_Vector_base<std::shared_ptr<cl::sycl::detail::event_impl>, std::allocator<std::shared_ptr<cl::sycl::detail::event_impl>>>::_Vector_impl_data" }
%"struct.std::_Vector_base<std::shared_ptr<cl::sycl::detail::event_impl>, std::allocator<std::shared_ptr<cl::sycl::detail::event_impl>>>::_Vector_impl_data" = type { %"class.std::shared_ptr.11"*, %"class.std::shared_ptr.11"*, %"class.std::shared_ptr.11"* }
%"struct.std::_Maybe_unary_or_binary_function.30" = type { i8 }
%"class.std::allocator" = type { i8 }
%"class.__gnu_cxx::new_allocator" = type { i8 }
%"class.std::allocator.45" = type { i8 }
%"struct.std::default_delete.42" = type { i8 }
%"class.std::__shared_ptr_access.5" = type { i8 }
%"struct.std::_Sp_alloc_shared_tag" = type { %"class.std::allocator.45"* }
%"class.__gnu_cxx::new_allocator.46" = type { i8 }
%"class.std::allocator.48" = type { i8 }
%"struct.std::__allocated_ptr" = type { %"class.std::allocator.48"*, %"class.std::_Sp_counted_ptr_inplace"* }
%"class.std::_Sp_counted_ptr_inplace" = type { %"class.std::_Sp_counted_base", %"class.std::_Sp_counted_ptr_inplace<cl::sycl::detail::buffer_impl, std::allocator<cl::sycl::detail::buffer_impl>, __gnu_cxx::_S_atomic>::_Impl" }
%"class.std::_Sp_counted_ptr_inplace<cl::sycl::detail::buffer_impl, std::allocator<cl::sycl::detail::buffer_impl>, __gnu_cxx::_S_atomic>::_Impl" = type { %"struct.__gnu_cxx::__aligned_buffer" }
%"struct.__gnu_cxx::__aligned_buffer" = type { %"union.std::aligned_storage<184, 8>::type" }
%"union.std::aligned_storage<184, 8>::type" = type { [184 x i8] }
%"class.__gnu_cxx::new_allocator.49" = type { i8 }
%"class.std::_Mutex_base" = type { i8 }
%"struct.std::_Sp_ebo_helper" = type { i8 }
%"class.std::type_info" = type { i32 (...)**, i8* }
%"class.cl::sycl::invalid_object_error" = type { %"class.cl::sycl::device_error" }
%"class.cl::sycl::device_error" = type { %"class.cl::sycl::exception" }
%"class.cl::sycl::exception" = type { %"class.std::exception", %"class.std::__cxx11::basic_string", i32, %"class.std::shared_ptr.54" }
%"class.std::exception" = type { i32 (...)** }
%"class.std::shared_ptr.54" = type { %"class.std::__shared_ptr.55" }
%"class.std::__shared_ptr.55" = type { %"class.cl::sycl::context"*, %"class.std::__shared_count" }
%"class.cl::sycl::context" = type { %"class.std::shared_ptr.14" }
%"struct.std::default_delete" = type { i8 }
%"struct.std::_Tuple_impl.40" = type { i8 }
%"struct.std::_Head_base.41" = type { i8 }
%"struct.std::_Tuple_impl.9" = type { i8 }
%"struct.std::_Head_base" = type { i8 }
%"struct.std::_Maybe_unary_or_binary_function" = type { i8 }
%"class.std::__shared_ptr_access.8" = type { i8 }
%"class.__gnu_cxx::__normal_iterator" = type { %"class.std::shared_ptr.0"* }
%"class.std::__shared_ptr_access.2" = type { i8 }
%"class.std::__shared_ptr_access.13" = type { i8 }
%"class.std::__shared_ptr_access.16" = type { i8 }
%"class.std::__shared_ptr_access.19" = type { i8 }
%"class.std::allocator.51" = type { i8 }
%"struct.std::__false_type" = type { i8 }
%"struct.std::forward_iterator_tag" = type { i8 }
%"struct.std::random_access_iterator_tag" = type { i8 }
%"class.std::__shared_ptr_access.56" = type { i8 }
%struct.__va_list_tag = type { i32, i32, i8*, i8* }
%class.anon.57 = type { %"class.cl::sycl::detail::SYCLMemObjT"*, i8* }
%"struct.std::integral_constant" = type { i8 }
%"class.cl::sycl::invalid_parameter_error" = type { %"class.cl::sycl::runtime_error" }
%"class.cl::sycl::runtime_error" = type { %"class.cl::sycl::exception" }
%"class.std::bad_alloc" = type { %"class.std::exception" }
%"struct.std::_Maybe_unary_or_binary_function.59" = type { i8 }
%"struct.std::integral_constant.150" = type { i8 }
%"class.cl::sycl::accessor.151" = type { %"class.cl::sycl::detail::AccessorBaseHost", [16 x i8] }
%"class.cl::sycl::accessor.153" = type { %"class.cl::sycl::detail::AccessorBaseHost", [16 x i8] }
%"class.cl::sycl::accessor.157" = type { %"class.cl::sycl::detail::LocalAccessorBaseHost", [16 x i8] }
%"class.cl::sycl::detail::LocalAccessorBaseHost" = type { %"class.std::shared_ptr.78" }
%class.anon.159 = type { %"class.cl::sycl::accessor.157", %"class.cl::sycl::accessor.157", %"class.cl::sycl::accessor.157", %"class.cl::sycl::accessor.151", %"class.cl::sycl::accessor.151", %"class.cl::sycl::accessor.153" }
%"class.cl::sycl::detail::accessor_common.158" = type { i8 }
%"class.cl::sycl::detail::accessor_common.152" = type { i8 }
%"class.cl::sycl::detail::accessor_common.154" = type { i8 }
%"class.cl::sycl::ONEAPI::accessor_property_list" = type { %"class.cl::sycl::detail::PropertyListBase" }
%"class.std::__shared_ptr_access.22" = type { i8 }
%"class.std::_Sp_counted_ptr" = type { %"class.std::_Sp_counted_base", %"class.cl::sycl::detail::AccessorImplHost"* }
%"class.std::__shared_ptr_access.80" = type { i8 }
%"class.__gnu_cxx::new_allocator.52" = type { i8 }
%"class.std::_Sp_counted_ptr.160" = type { %"class.std::_Sp_counted_base", %"class.cl::sycl::detail::LocalAccessorImplHost"* }
%"class.cl::sycl::detail::HostKernel" = type { %"class.cl::sycl::detail::HostKernelBase", %class.anon.159 }
%struct._Save_errno = type { i32 }
%"struct.std::is_same" = type { i8 }
%"struct.std::default_delete.113" = type { i8 }
%"struct.std::_Tuple_impl.111" = type { i8 }
%"struct.std::_Head_base.112" = type { i8 }
%"class.cl::sycl::detail::HostProfilingInfo" = type { i64, i64 }
%"class.cl::sycl::nd_range" = type { %"class.cl::sycl::range.24", %"class.cl::sycl::range.24", %"class.cl::sycl::id" }
%"struct.cl::sycl::detail::NDLoopIterateImpl" = type { i8 }
%class.anon.161 = type { %"class.cl::sycl::range"*, %"class.cl::sycl::id.25"*, %"class.cl::sycl::detail::HostKernel"* }
%"class.cl::sycl::item" = type { %"struct.cl::sycl::detail::ItemBase" }
%"struct.cl::sycl::detail::ItemBase" = type { %"class.cl::sycl::range", %"class.cl::sycl::id.25", %"class.cl::sycl::id.25" }
%"class.cl::sycl::multi_ptr" = type { float* }
%"class.std::allocator.96" = type { i8 }
%"class.cl::sycl::detail::accessor_common" = type { i8 }

$_ZN2cl4sycl12gpu_selectorC2Ev = comdat any

$_ZN2cl4sycl13property_listC2IJEvEEDpT_ = comdat any

$_ZN2cl4sycl5queueC2ERKNS0_15device_selectorERKNS0_13property_listE = comdat any

$_ZN2cl4sycl13property_listD2Ev = comdat any

$_ZN2cl4sycl5rangeILi1EEC2ILi1EEENSt9enable_ifIXeqT_Li1EEmE4typeE = comdat any

$_ZN2cl4sycl6bufferIfLi1ENS0_6detail17aligned_allocatorIcEEvEC2EPfRKNS0_5rangeILi1EEERKNS0_13property_listE = comdat any

$_ZN2cl4sycl6detail13code_location7currentEPKcS4_mm = comdat any

$_ZN2cl4sycl5eventD2Ev = comdat any

$_ZN2cl4sycl13host_accessorIfLi1ELNS0_6access4modeE1024EEC2IfLi1ENS0_6detail17aligned_allocatorIcEEvEERNS0_6bufferIfLi1ET1_vEENS0_10mode_tag_tILS3_1024EEERKNS0_13property_listE = comdat any

$_ZNK2cl4sycl8accessorIfLi1ELNS0_6access4modeE1024ELNS2_6targetE2018ELNS2_11placeholderE0ENS0_6ONEAPI22accessor_property_listIJEEEEixILi1EEENSt9enable_ifIXaagtT_Li0EL_ZNS0_6detail15accessor_commonIfLi1ELS3_1024ELS4_2018ELS5_0ES8_E16IsAccessReadOnlyEEERKfE4typeENS0_2idILi1EEE = comdat any

$_ZN2cl4sycl2idILi1EEC2ILi1EEENSt9enable_ifIXeqT_Li1EEmE4typeE = comdat any

$_ZN2cl4sycl13host_accessorIfLi1ELNS0_6access4modeE1024EED2Ev = comdat any

$_ZN2cl4sycl6bufferIfLi1ENS0_6detail17aligned_allocatorIcEEvED2Ev = comdat any

$_ZN2cl4sycl5queueD2Ev = comdat any

$_ZN2cl4sycl12gpu_selectorD2Ev = comdat any

$_ZN2cl4sycl15device_selectorC2Ev = comdat any

$_ZNSt8functionIFvN2cl4sycl14exception_listEEEC2Ev = comdat any

$_ZNSt8functionIFvN2cl4sycl14exception_listEEED2Ev = comdat any

$_ZN2cl4sycl6deviceD2Ev = comdat any

$_ZNSt14_Function_baseC2Ev = comdat any

$__clang_call_terminate = comdat any

$_ZNSt14_Function_baseD2Ev = comdat any

$_ZNSt10shared_ptrIN2cl4sycl6detail11device_implEED2Ev = comdat any

$_ZNSt12__shared_ptrIN2cl4sycl6detail11device_implELN9__gnu_cxx12_Lock_policyE2EED2Ev = comdat any

$_ZNSt14__shared_countILN9__gnu_cxx12_Lock_policyE2EED2Ev = comdat any

$_ZNSt16_Sp_counted_baseILN9__gnu_cxx12_Lock_policyE2EE10_M_releaseEv = comdat any

$_ZN2cl4sycl6detail16PropertyListBaseD2Ev = comdat any

$_ZNSt6vectorISt10shared_ptrIN2cl4sycl6detail20PropertyWithDataBaseEESaIS5_EED2Ev = comdat any

$_ZSt8_DestroyIPSt10shared_ptrIN2cl4sycl6detail20PropertyWithDataBaseEES5_EvT_S7_RSaIT0_E = comdat any

$_ZNSt12_Vector_baseISt10shared_ptrIN2cl4sycl6detail20PropertyWithDataBaseEESaIS5_EE19_M_get_Tp_allocatorEv = comdat any

$_ZNSt12_Vector_baseISt10shared_ptrIN2cl4sycl6detail20PropertyWithDataBaseEESaIS5_EED2Ev = comdat any

$_ZSt8_DestroyIPSt10shared_ptrIN2cl4sycl6detail20PropertyWithDataBaseEEEvT_S7_ = comdat any

$_ZNSt12_Destroy_auxILb0EE9__destroyIPSt10shared_ptrIN2cl4sycl6detail20PropertyWithDataBaseEEEEvT_S9_ = comdat any

$_ZSt8_DestroyISt10shared_ptrIN2cl4sycl6detail20PropertyWithDataBaseEEEvPT_ = comdat any

$_ZSt11__addressofISt10shared_ptrIN2cl4sycl6detail20PropertyWithDataBaseEEEPT_RS6_ = comdat any

$_ZNSt10shared_ptrIN2cl4sycl6detail20PropertyWithDataBaseEED2Ev = comdat any

$_ZNSt12__shared_ptrIN2cl4sycl6detail20PropertyWithDataBaseELN9__gnu_cxx12_Lock_policyE2EED2Ev = comdat any

$_ZNSt12_Vector_baseISt10shared_ptrIN2cl4sycl6detail20PropertyWithDataBaseEESaIS5_EE13_M_deallocateEPS5_m = comdat any

$_ZNSt12_Vector_baseISt10shared_ptrIN2cl4sycl6detail20PropertyWithDataBaseEESaIS5_EE12_Vector_implD2Ev = comdat any

$_ZNSt16allocator_traitsISaISt10shared_ptrIN2cl4sycl6detail20PropertyWithDataBaseEEEE10deallocateERS6_PS5_m = comdat any

$_ZN9__gnu_cxx13new_allocatorISt10shared_ptrIN2cl4sycl6detail20PropertyWithDataBaseEEE10deallocateEPS6_m = comdat any

$_ZN9__gnu_cxx13new_allocatorISt10shared_ptrIN2cl4sycl6detail20PropertyWithDataBaseEEED2Ev = comdat any

$_ZN2cl4sycl6detail13code_locationC2EPKcS4_ii = comdat any

$_ZNSt10shared_ptrIN2cl4sycl6detail10event_implEED2Ev = comdat any

$_ZNSt12__shared_ptrIN2cl4sycl6detail10event_implELN9__gnu_cxx12_Lock_policyE2EED2Ev = comdat any

$_ZN2cl4sycl8accessorIfLi1ELNS0_6access4modeE1024ELNS2_6targetE2018ELNS2_11placeholderE0ENS0_6ONEAPI22accessor_property_listIJEEEED2Ev = comdat any

$_ZN2cl4sycl6detail16AccessorBaseHostD2Ev = comdat any

$_ZNSt10shared_ptrIN2cl4sycl6detail16AccessorImplHostEED2Ev = comdat any

$_ZNSt10shared_ptrIN2cl4sycl6detail11buffer_implEED2Ev = comdat any

$_ZNSt10shared_ptrIN2cl4sycl6detail10queue_implEED2Ev = comdat any

$_ZNSt12__shared_ptrIN2cl4sycl6detail10queue_implELN9__gnu_cxx12_Lock_policyE2EED2Ev = comdat any

$_ZN2cl4sycl15device_selectorD2Ev = comdat any

$_ZN2cl4sycl6detail5arrayILi1EEC2ILi1EEENSt9enable_ifIXeqT_Li1EEmE4typeE = comdat any

$_ZNSt6bitsetILm32EEC2Ey = comdat any

$_ZN2cl4sycl6detail16PropertyListBaseC2ESt6bitsetILm32EE = comdat any

$_ZN2cl4sycl6detail16PropertyListBase10ctorHelperEv = comdat any

$_ZNSt13_Sanitize_valILm32ELb1EE18_S_do_sanitize_valEy = comdat any

$_ZNSt12_Base_bitsetILm1EEC2Ey = comdat any

$_ZNSt6vectorISt10shared_ptrIN2cl4sycl6detail20PropertyWithDataBaseEESaIS5_EEC2Ev = comdat any

$_ZNSt12_Vector_baseISt10shared_ptrIN2cl4sycl6detail20PropertyWithDataBaseEESaIS5_EEC2Ev = comdat any

$_ZNSt12_Vector_baseISt10shared_ptrIN2cl4sycl6detail20PropertyWithDataBaseEESaIS5_EE12_Vector_implC2Ev = comdat any

$_ZNSaISt10shared_ptrIN2cl4sycl6detail20PropertyWithDataBaseEEEC2Ev = comdat any

$_ZNSt12_Vector_baseISt10shared_ptrIN2cl4sycl6detail20PropertyWithDataBaseEESaIS5_EE17_Vector_impl_dataC2Ev = comdat any

$_ZN9__gnu_cxx13new_allocatorISt10shared_ptrIN2cl4sycl6detail20PropertyWithDataBaseEEEC2Ev = comdat any

$_ZNSt10shared_ptrIN2cl4sycl6detail11buffer_implEEC2Ev = comdat any

$_ZSt11make_sharedIN2cl4sycl6detail11buffer_implEJRPfmmRKNS1_13property_listESt10unique_ptrINS2_25SYCLMemObjAllocatorHolderINS2_17aligned_allocatorIcEEEESt14default_deleteISD_EEEESt10shared_ptrIT_EDpOT0_ = comdat any

$_ZNK2cl4sycl6bufferIfLi1ENS0_6detail17aligned_allocatorIcEEvE4sizeEv = comdat any

$_ZN2cl4sycl6detail17getNextPowerOfTwoEm = comdat any

$_ZN2cl4sycl15make_unique_ptrINS0_6detail25SYCLMemObjAllocatorHolderINS2_17aligned_allocatorIcEEEEJEEESt10unique_ptrIT_St14default_deleteIS8_EEDpOT0_ = comdat any

$_ZNSt10shared_ptrIN2cl4sycl6detail11buffer_implEEaSEOS4_ = comdat any

$_ZNSt10unique_ptrIN2cl4sycl6detail25SYCLMemObjAllocatorHolderINS2_17aligned_allocatorIcEEEESt14default_deleteIS6_EED2Ev = comdat any

$_ZNSt12__shared_ptrIN2cl4sycl6detail11buffer_implELN9__gnu_cxx12_Lock_policyE2EEC2Ev = comdat any

$_ZNSt14__shared_countILN9__gnu_cxx12_Lock_policyE2EEC2Ev = comdat any

$_ZSt15allocate_sharedIN2cl4sycl6detail11buffer_implESaIS3_EJRPfmmRKNS1_13property_listESt10unique_ptrINS2_25SYCLMemObjAllocatorHolderINS2_17aligned_allocatorIcEEEESt14default_deleteISE_EEEESt10shared_ptrIT_ERKT0_DpOT1_ = comdat any

$_ZNSaIN2cl4sycl6detail11buffer_implEEC2Ev = comdat any

$_ZSt7forwardIRPfEOT_RNSt16remove_referenceIS2_E4typeE = comdat any

$_ZSt7forwardImEOT_RNSt16remove_referenceIS0_E4typeE = comdat any

$_ZSt7forwardIRKN2cl4sycl13property_listEEOT_RNSt16remove_referenceIS5_E4typeE = comdat any

$_ZSt7forwardISt10unique_ptrIN2cl4sycl6detail25SYCLMemObjAllocatorHolderINS3_17aligned_allocatorIcEEEESt14default_deleteIS7_EEEOT_RNSt16remove_referenceISB_E4typeE = comdat any

$_ZNSaIN2cl4sycl6detail11buffer_implEED2Ev = comdat any

$_ZNSt10shared_ptrIN2cl4sycl6detail11buffer_implEEC2ISaIS3_EJRPfmmRKNS1_13property_listESt10unique_ptrINS2_25SYCLMemObjAllocatorHolderINS2_17aligned_allocatorIcEEEESt14default_deleteISG_EEEEESt20_Sp_alloc_shared_tagIT_EDpOT0_ = comdat any

$_ZNSt12__shared_ptrIN2cl4sycl6detail11buffer_implELN9__gnu_cxx12_Lock_policyE2EEC2ISaIS3_EJRPfmmRKNS1_13property_listESt10unique_ptrINS2_25SYCLMemObjAllocatorHolderINS2_17aligned_allocatorIcEEEESt14default_deleteISI_EEEEESt20_Sp_alloc_shared_tagIT_EDpOT0_ = comdat any

$_ZNSt14__shared_countILN9__gnu_cxx12_Lock_policyE2EEC2IN2cl4sycl6detail11buffer_implESaIS7_EJRPfmmRKNS5_13property_listESt10unique_ptrINS6_25SYCLMemObjAllocatorHolderINS6_17aligned_allocatorIcEEEESt14default_deleteISI_EEEEERPT_St20_Sp_alloc_shared_tagIT0_EDpOT1_ = comdat any

$_ZNSt12__shared_ptrIN2cl4sycl6detail11buffer_implELN9__gnu_cxx12_Lock_policyE2EE31_M_enable_shared_from_this_withIS3_S3_EENSt9enable_ifIXntsr15__has_esft_baseIT0_EE5valueEvE4typeEPT_ = comdat any

$_ZNSaISt23_Sp_counted_ptr_inplaceIN2cl4sycl6detail11buffer_implESaIS3_ELN9__gnu_cxx12_Lock_policyE2EEEC2IS3_EERKSaIT_E = comdat any

$_ZSt18__allocate_guardedISaISt23_Sp_counted_ptr_inplaceIN2cl4sycl6detail11buffer_implESaIS4_ELN9__gnu_cxx12_Lock_policyE2EEEESt15__allocated_ptrIT_ERSB_ = comdat any

$_ZNSt15__allocated_ptrISaISt23_Sp_counted_ptr_inplaceIN2cl4sycl6detail11buffer_implESaIS4_ELN9__gnu_cxx12_Lock_policyE2EEEE3getEv = comdat any

$_ZNSaIN2cl4sycl6detail11buffer_implEEC2ERKS3_ = comdat any

$_ZNSt23_Sp_counted_ptr_inplaceIN2cl4sycl6detail11buffer_implESaIS3_ELN9__gnu_cxx12_Lock_policyE2EEC2IJRPfmmRKNS1_13property_listESt10unique_ptrINS2_25SYCLMemObjAllocatorHolderINS2_17aligned_allocatorIcEEEESt14default_deleteISI_EEEEES4_DpOT_ = comdat any

$_ZNSt15__allocated_ptrISaISt23_Sp_counted_ptr_inplaceIN2cl4sycl6detail11buffer_implESaIS4_ELN9__gnu_cxx12_Lock_policyE2EEEEaSEDn = comdat any

$_ZNSt23_Sp_counted_ptr_inplaceIN2cl4sycl6detail11buffer_implESaIS3_ELN9__gnu_cxx12_Lock_policyE2EE6_M_ptrEv = comdat any

$_ZNSt15__allocated_ptrISaISt23_Sp_counted_ptr_inplaceIN2cl4sycl6detail11buffer_implESaIS4_ELN9__gnu_cxx12_Lock_policyE2EEEED2Ev = comdat any

$_ZNSaISt23_Sp_counted_ptr_inplaceIN2cl4sycl6detail11buffer_implESaIS3_ELN9__gnu_cxx12_Lock_policyE2EEED2Ev = comdat any

$_ZN9__gnu_cxx13new_allocatorISt23_Sp_counted_ptr_inplaceIN2cl4sycl6detail11buffer_implESaIS5_ELNS_12_Lock_policyE2EEEC2Ev = comdat any

$_ZNSt16allocator_traitsISaISt23_Sp_counted_ptr_inplaceIN2cl4sycl6detail11buffer_implESaIS4_ELN9__gnu_cxx12_Lock_policyE2EEEE8allocateERS9_m = comdat any

$_ZNSt15__allocated_ptrISaISt23_Sp_counted_ptr_inplaceIN2cl4sycl6detail11buffer_implESaIS4_ELN9__gnu_cxx12_Lock_policyE2EEEEC2ERS9_PS8_ = comdat any

$_ZN9__gnu_cxx13new_allocatorISt23_Sp_counted_ptr_inplaceIN2cl4sycl6detail11buffer_implESaIS5_ELNS_12_Lock_policyE2EEE8allocateEmPKv = comdat any

$_ZNK9__gnu_cxx13new_allocatorISt23_Sp_counted_ptr_inplaceIN2cl4sycl6detail11buffer_implESaIS5_ELNS_12_Lock_policyE2EEE8max_sizeEv = comdat any

$_ZSt11__addressofISaISt23_Sp_counted_ptr_inplaceIN2cl4sycl6detail11buffer_implESaIS4_ELN9__gnu_cxx12_Lock_policyE2EEEEPT_RSA_ = comdat any

$_ZSt12__to_addressISt23_Sp_counted_ptr_inplaceIN2cl4sycl6detail11buffer_implESaIS4_ELN9__gnu_cxx12_Lock_policyE2EEEPT_SA_ = comdat any

$_ZN9__gnu_cxx13new_allocatorIN2cl4sycl6detail11buffer_implEEC2ERKS5_ = comdat any

$_ZNSt16_Sp_counted_baseILN9__gnu_cxx12_Lock_policyE2EEC2Ev = comdat any

$_ZNSt23_Sp_counted_ptr_inplaceIN2cl4sycl6detail11buffer_implESaIS3_ELN9__gnu_cxx12_Lock_policyE2EE5_ImplC2ES4_ = comdat any

$_ZNSt16allocator_traitsISaIN2cl4sycl6detail11buffer_implEEE9constructIS3_JRPfmmRKNS1_13property_listESt10unique_ptrINS2_25SYCLMemObjAllocatorHolderINS2_17aligned_allocatorIcEEEESt14default_deleteISG_EEEEEvRS4_PT_DpOT0_ = comdat any

$_ZNSt23_Sp_counted_ptr_inplaceIN2cl4sycl6detail11buffer_implESaIS3_ELN9__gnu_cxx12_Lock_policyE2EE5_ImplD2Ev = comdat any

$_ZNSt23_Sp_counted_ptr_inplaceIN2cl4sycl6detail11buffer_implESaIS3_ELN9__gnu_cxx12_Lock_policyE2EED2Ev = comdat any

$_ZNSt23_Sp_counted_ptr_inplaceIN2cl4sycl6detail11buffer_implESaIS3_ELN9__gnu_cxx12_Lock_policyE2EED0Ev = comdat any

$_ZNSt23_Sp_counted_ptr_inplaceIN2cl4sycl6detail11buffer_implESaIS3_ELN9__gnu_cxx12_Lock_policyE2EE10_M_disposeEv = comdat any

$_ZNSt23_Sp_counted_ptr_inplaceIN2cl4sycl6detail11buffer_implESaIS3_ELN9__gnu_cxx12_Lock_policyE2EE10_M_destroyEv = comdat any

$_ZNSt23_Sp_counted_ptr_inplaceIN2cl4sycl6detail11buffer_implESaIS3_ELN9__gnu_cxx12_Lock_policyE2EE14_M_get_deleterERKSt9type_info = comdat any

$_ZNSt16_Sp_counted_baseILN9__gnu_cxx12_Lock_policyE2EED2Ev = comdat any

$_ZNSt16_Sp_counted_baseILN9__gnu_cxx12_Lock_policyE2EED0Ev = comdat any

$_ZNSt16_Sp_counted_baseILN9__gnu_cxx12_Lock_policyE2EE10_M_destroyEv = comdat any

$_ZNSt14_Sp_ebo_helperILi0ESaIN2cl4sycl6detail11buffer_implEELb1EEC2ERKS4_ = comdat any

$_ZN9__gnu_cxx13new_allocatorIN2cl4sycl6detail11buffer_implEE9constructIS4_JRPfmmRKNS2_13property_listESt10unique_ptrINS3_25SYCLMemObjAllocatorHolderINS3_17aligned_allocatorIcEEEESt14default_deleteISG_EEEEEvPT_DpOT0_ = comdat any

$_ZNSt10unique_ptrIN2cl4sycl6detail19SYCLMemObjAllocatorESt14default_deleteIS3_EEC2INS2_25SYCLMemObjAllocatorHolderINS2_17aligned_allocatorIcEEEES4_ISB_EvEEOS_IT_T0_E = comdat any

$_ZN2cl4sycl6detail11buffer_implC2EPvmmRKNS0_13property_listESt10unique_ptrINS1_19SYCLMemObjAllocatorESt14default_deleteIS8_EE = comdat any

$_ZNSt10unique_ptrIN2cl4sycl6detail19SYCLMemObjAllocatorESt14default_deleteIS3_EED2Ev = comdat any

$_ZNSt10unique_ptrIN2cl4sycl6detail25SYCLMemObjAllocatorHolderINS2_17aligned_allocatorIcEEEESt14default_deleteIS6_EE7releaseEv = comdat any

$_ZSt7forwardISt14default_deleteIN2cl4sycl6detail25SYCLMemObjAllocatorHolderINS3_17aligned_allocatorIcEEEEEEOT_RNSt16remove_referenceIS9_E4typeE = comdat any

$_ZNSt10unique_ptrIN2cl4sycl6detail25SYCLMemObjAllocatorHolderINS2_17aligned_allocatorIcEEEESt14default_deleteIS6_EE11get_deleterEv = comdat any

$_ZNSt15__uniq_ptr_implIN2cl4sycl6detail19SYCLMemObjAllocatorESt14default_deleteIS3_EEC2IS4_INS2_25SYCLMemObjAllocatorHolderINS2_17aligned_allocatorIcEEEEEEEPS3_OT_ = comdat any

$_ZNKSt10unique_ptrIN2cl4sycl6detail25SYCLMemObjAllocatorHolderINS2_17aligned_allocatorIcEEEESt14default_deleteIS6_EE3getEv = comdat any

$_ZNSt15__uniq_ptr_implIN2cl4sycl6detail25SYCLMemObjAllocatorHolderINS2_17aligned_allocatorIcEEEESt14default_deleteIS6_EE6_M_ptrEv = comdat any

$_ZNKSt15__uniq_ptr_implIN2cl4sycl6detail25SYCLMemObjAllocatorHolderINS2_17aligned_allocatorIcEEEESt14default_deleteIS6_EE6_M_ptrEv = comdat any

$_ZSt3getILm0EJPN2cl4sycl6detail25SYCLMemObjAllocatorHolderINS2_17aligned_allocatorIcEEEESt14default_deleteIS6_EEERKNSt13tuple_elementIXT_ESt5tupleIJDpT0_EEE4typeERKSE_ = comdat any

$_ZSt12__get_helperILm0EPN2cl4sycl6detail25SYCLMemObjAllocatorHolderINS2_17aligned_allocatorIcEEEEJSt14default_deleteIS6_EEERKT0_RKSt11_Tuple_implIXT_EJSA_DpT1_EE = comdat any

$_ZNSt11_Tuple_implILm0EJPN2cl4sycl6detail25SYCLMemObjAllocatorHolderINS2_17aligned_allocatorIcEEEESt14default_deleteIS6_EEE7_M_headERKSA_ = comdat any

$_ZNSt10_Head_baseILm0EPN2cl4sycl6detail25SYCLMemObjAllocatorHolderINS2_17aligned_allocatorIcEEEELb0EE7_M_headERKS8_ = comdat any

$_ZSt3getILm0EJPN2cl4sycl6detail25SYCLMemObjAllocatorHolderINS2_17aligned_allocatorIcEEEESt14default_deleteIS6_EEERNSt13tuple_elementIXT_ESt5tupleIJDpT0_EEE4typeERSE_ = comdat any

$_ZSt12__get_helperILm0EPN2cl4sycl6detail25SYCLMemObjAllocatorHolderINS2_17aligned_allocatorIcEEEEJSt14default_deleteIS6_EEERT0_RSt11_Tuple_implIXT_EJSA_DpT1_EE = comdat any

$_ZNSt11_Tuple_implILm0EJPN2cl4sycl6detail25SYCLMemObjAllocatorHolderINS2_17aligned_allocatorIcEEEESt14default_deleteIS6_EEE7_M_headERSA_ = comdat any

$_ZNSt10_Head_baseILm0EPN2cl4sycl6detail25SYCLMemObjAllocatorHolderINS2_17aligned_allocatorIcEEEELb0EE7_M_headERS8_ = comdat any

$_ZNSt15__uniq_ptr_implIN2cl4sycl6detail25SYCLMemObjAllocatorHolderINS2_17aligned_allocatorIcEEEESt14default_deleteIS6_EE10_M_deleterEv = comdat any

$_ZSt3getILm1EJPN2cl4sycl6detail25SYCLMemObjAllocatorHolderINS2_17aligned_allocatorIcEEEESt14default_deleteIS6_EEERNSt13tuple_elementIXT_ESt5tupleIJDpT0_EEE4typeERSE_ = comdat any

$_ZSt12__get_helperILm1ESt14default_deleteIN2cl4sycl6detail25SYCLMemObjAllocatorHolderINS3_17aligned_allocatorIcEEEEEJEERT0_RSt11_Tuple_implIXT_EJS9_DpT1_EE = comdat any

$_ZNSt11_Tuple_implILm1EJSt14default_deleteIN2cl4sycl6detail25SYCLMemObjAllocatorHolderINS3_17aligned_allocatorIcEEEEEEE7_M_headERS9_ = comdat any

$_ZNSt10_Head_baseILm1ESt14default_deleteIN2cl4sycl6detail25SYCLMemObjAllocatorHolderINS3_17aligned_allocatorIcEEEEELb1EE7_M_headERS9_ = comdat any

$_ZNSt5tupleIJPN2cl4sycl6detail19SYCLMemObjAllocatorESt14default_deleteIS3_EEEC2IRS4_S5_INS2_25SYCLMemObjAllocatorHolderINS2_17aligned_allocatorIcEEEEELb1EEEOT_OT0_ = comdat any

$_ZSt7forwardIRPN2cl4sycl6detail19SYCLMemObjAllocatorEEOT_RNSt16remove_referenceIS6_E4typeE = comdat any

$_ZNSt11_Tuple_implILm0EJPN2cl4sycl6detail19SYCLMemObjAllocatorESt14default_deleteIS3_EEEC2IRS4_JS5_INS2_25SYCLMemObjAllocatorHolderINS2_17aligned_allocatorIcEEEEEEvEEOT_DpOT0_ = comdat any

$_ZNSt11_Tuple_implILm1EJSt14default_deleteIN2cl4sycl6detail19SYCLMemObjAllocatorEEEEC2IS0_INS3_25SYCLMemObjAllocatorHolderINS3_17aligned_allocatorIcEEEEEEEOT_ = comdat any

$_ZNSt10_Head_baseILm0EPN2cl4sycl6detail19SYCLMemObjAllocatorELb0EEC2IRS4_EEOT_ = comdat any

$_ZNSt10_Head_baseILm1ESt14default_deleteIN2cl4sycl6detail19SYCLMemObjAllocatorEELb1EEC2IS0_INS3_25SYCLMemObjAllocatorHolderINS3_17aligned_allocatorIcEEEEEEEOT_ = comdat any

$_ZNSt14default_deleteIN2cl4sycl6detail19SYCLMemObjAllocatorEEC2INS2_25SYCLMemObjAllocatorHolderINS2_17aligned_allocatorIcEEEEvEERKS_IT_E = comdat any

$_ZSt4moveIRSt10unique_ptrIN2cl4sycl6detail19SYCLMemObjAllocatorESt14default_deleteIS4_EEEONSt16remove_referenceIT_E4typeEOSA_ = comdat any

$_ZNSt10unique_ptrIN2cl4sycl6detail19SYCLMemObjAllocatorESt14default_deleteIS3_EEC2EOS6_ = comdat any

$_ZN2cl4sycl6detail11SYCLMemObjTC2EmRKNS0_13property_listESt10unique_ptrINS1_19SYCLMemObjAllocatorESt14default_deleteIS7_EE = comdat any

$_ZNK2cl4sycl13property_list12has_propertyINS0_3ext6oneapi8property6buffer22use_pinned_host_memoryEEEbv = comdat any

$_ZN2cl4sycl20invalid_object_errorCI2NS0_12device_errorEEPKci = comdat any

$_ZN2cl4sycl20invalid_object_errorD2Ev = comdat any

$_ZN2cl4sycl6detail11SYCLMemObjT14handleHostDataEPvm = comdat any

$_ZN2cl4sycl6detail11SYCLMemObjTD2Ev = comdat any

$_ZNSt10unique_ptrIN2cl4sycl6detail19SYCLMemObjAllocatorESt14default_deleteIS3_EE7releaseEv = comdat any

$_ZSt7forwardISt14default_deleteIN2cl4sycl6detail19SYCLMemObjAllocatorEEEOT_RNSt16remove_referenceIS6_E4typeE = comdat any

$_ZNSt10unique_ptrIN2cl4sycl6detail19SYCLMemObjAllocatorESt14default_deleteIS3_EE11get_deleterEv = comdat any

$_ZNSt15__uniq_ptr_implIN2cl4sycl6detail19SYCLMemObjAllocatorESt14default_deleteIS3_EEC2IS5_EEPS3_OT_ = comdat any

$_ZNKSt10unique_ptrIN2cl4sycl6detail19SYCLMemObjAllocatorESt14default_deleteIS3_EE3getEv = comdat any

$_ZNSt15__uniq_ptr_implIN2cl4sycl6detail19SYCLMemObjAllocatorESt14default_deleteIS3_EE6_M_ptrEv = comdat any

$_ZNKSt15__uniq_ptr_implIN2cl4sycl6detail19SYCLMemObjAllocatorESt14default_deleteIS3_EE6_M_ptrEv = comdat any

$_ZSt3getILm0EJPN2cl4sycl6detail19SYCLMemObjAllocatorESt14default_deleteIS3_EEERKNSt13tuple_elementIXT_ESt5tupleIJDpT0_EEE4typeERKSB_ = comdat any

$_ZSt12__get_helperILm0EPN2cl4sycl6detail19SYCLMemObjAllocatorEJSt14default_deleteIS3_EEERKT0_RKSt11_Tuple_implIXT_EJS7_DpT1_EE = comdat any

$_ZNSt11_Tuple_implILm0EJPN2cl4sycl6detail19SYCLMemObjAllocatorESt14default_deleteIS3_EEE7_M_headERKS7_ = comdat any

$_ZNSt10_Head_baseILm0EPN2cl4sycl6detail19SYCLMemObjAllocatorELb0EE7_M_headERKS5_ = comdat any

$_ZSt3getILm0EJPN2cl4sycl6detail19SYCLMemObjAllocatorESt14default_deleteIS3_EEERNSt13tuple_elementIXT_ESt5tupleIJDpT0_EEE4typeERSB_ = comdat any

$_ZSt12__get_helperILm0EPN2cl4sycl6detail19SYCLMemObjAllocatorEJSt14default_deleteIS3_EEERT0_RSt11_Tuple_implIXT_EJS7_DpT1_EE = comdat any

$_ZNSt11_Tuple_implILm0EJPN2cl4sycl6detail19SYCLMemObjAllocatorESt14default_deleteIS3_EEE7_M_headERS7_ = comdat any

$_ZNSt10_Head_baseILm0EPN2cl4sycl6detail19SYCLMemObjAllocatorELb0EE7_M_headERS5_ = comdat any

$_ZNSt15__uniq_ptr_implIN2cl4sycl6detail19SYCLMemObjAllocatorESt14default_deleteIS3_EE10_M_deleterEv = comdat any

$_ZSt3getILm1EJPN2cl4sycl6detail19SYCLMemObjAllocatorESt14default_deleteIS3_EEERNSt13tuple_elementIXT_ESt5tupleIJDpT0_EEE4typeERSB_ = comdat any

$_ZSt12__get_helperILm1ESt14default_deleteIN2cl4sycl6detail19SYCLMemObjAllocatorEEJEERT0_RSt11_Tuple_implIXT_EJS6_DpT1_EE = comdat any

$_ZNSt11_Tuple_implILm1EJSt14default_deleteIN2cl4sycl6detail19SYCLMemObjAllocatorEEEE7_M_headERS6_ = comdat any

$_ZNSt10_Head_baseILm1ESt14default_deleteIN2cl4sycl6detail19SYCLMemObjAllocatorEELb1EE7_M_headERS6_ = comdat any

$_ZNSt5tupleIJPN2cl4sycl6detail19SYCLMemObjAllocatorESt14default_deleteIS3_EEEC2IRS4_S6_Lb1EEEOT_OT0_ = comdat any

$_ZNSt11_Tuple_implILm0EJPN2cl4sycl6detail19SYCLMemObjAllocatorESt14default_deleteIS3_EEEC2IRS4_JS6_EvEEOT_DpOT0_ = comdat any

$_ZNSt11_Tuple_implILm1EJSt14default_deleteIN2cl4sycl6detail19SYCLMemObjAllocatorEEEEC2IS5_EEOT_ = comdat any

$_ZNSt10_Head_baseILm1ESt14default_deleteIN2cl4sycl6detail19SYCLMemObjAllocatorEELb1EEC2IS5_EEOT_ = comdat any

$_ZN2cl4sycl6detail11SYCLMemObjIC2Ev = comdat any

$_ZN2cl4sycl13property_listC2ERKS1_ = comdat any

$_ZNSt10shared_ptrIN2cl4sycl6detail10event_implEEC2EDn = comdat any

$_ZNSt10shared_ptrIN2cl4sycl6detail12context_implEEC2EDn = comdat any

$_ZNSt8functionIFvvEEC2EDn = comdat any

$_ZNSt10shared_ptrIKvEC2EDn = comdat any

$_ZNSt10shared_ptrIN2cl4sycl6detail12MemObjRecordEEC2Ev = comdat any

$_ZN2cl4sycl6detail11SYCLMemObjID2Ev = comdat any

$_ZN2cl4sycl6detail11SYCLMemObjID0Ev = comdat any

$_ZNSt12__shared_ptrIN2cl4sycl6detail12MemObjRecordELN9__gnu_cxx12_Lock_policyE2EEC2Ev = comdat any

$_ZN2cl4sycl6detail16PropertyListBaseC2ERKS2_ = comdat any

$_ZNSt6vectorISt10shared_ptrIN2cl4sycl6detail20PropertyWithDataBaseEESaIS5_EEC2ERKS7_ = comdat any

$_ZNKSt6vectorISt10shared_ptrIN2cl4sycl6detail20PropertyWithDataBaseEESaIS5_EE4sizeEv = comdat any

$_ZN9__gnu_cxx14__alloc_traitsISaISt10shared_ptrIN2cl4sycl6detail20PropertyWithDataBaseEEES6_E17_S_select_on_copyERKS7_ = comdat any

$_ZNKSt12_Vector_baseISt10shared_ptrIN2cl4sycl6detail20PropertyWithDataBaseEESaIS5_EE19_M_get_Tp_allocatorEv = comdat any

$_ZNSt12_Vector_baseISt10shared_ptrIN2cl4sycl6detail20PropertyWithDataBaseEESaIS5_EEC2EmRKS6_ = comdat any

$_ZNSaISt10shared_ptrIN2cl4sycl6detail20PropertyWithDataBaseEEED2Ev = comdat any

$_ZSt22__uninitialized_copy_aIN9__gnu_cxx17__normal_iteratorIPKSt10shared_ptrIN2cl4sycl6detail20PropertyWithDataBaseEESt6vectorIS7_SaIS7_EEEEPS7_S7_ET0_T_SG_SF_RSaIT1_E = comdat any

$_ZNKSt6vectorISt10shared_ptrIN2cl4sycl6detail20PropertyWithDataBaseEESaIS5_EE5beginEv = comdat any

$_ZNKSt6vectorISt10shared_ptrIN2cl4sycl6detail20PropertyWithDataBaseEESaIS5_EE3endEv = comdat any

$_ZNSt16allocator_traitsISaISt10shared_ptrIN2cl4sycl6detail20PropertyWithDataBaseEEEE37select_on_container_copy_constructionERKS6_ = comdat any

$_ZNSaISt10shared_ptrIN2cl4sycl6detail20PropertyWithDataBaseEEEC2ERKS5_ = comdat any

$_ZN9__gnu_cxx13new_allocatorISt10shared_ptrIN2cl4sycl6detail20PropertyWithDataBaseEEEC2ERKS7_ = comdat any

$_ZNSt12_Vector_baseISt10shared_ptrIN2cl4sycl6detail20PropertyWithDataBaseEESaIS5_EE12_Vector_implC2ERKS6_ = comdat any

$_ZNSt12_Vector_baseISt10shared_ptrIN2cl4sycl6detail20PropertyWithDataBaseEESaIS5_EE17_M_create_storageEm = comdat any

$_ZNSt12_Vector_baseISt10shared_ptrIN2cl4sycl6detail20PropertyWithDataBaseEESaIS5_EE11_M_allocateEm = comdat any

$_ZNSt16allocator_traitsISaISt10shared_ptrIN2cl4sycl6detail20PropertyWithDataBaseEEEE8allocateERS6_m = comdat any

$_ZN9__gnu_cxx13new_allocatorISt10shared_ptrIN2cl4sycl6detail20PropertyWithDataBaseEEE8allocateEmPKv = comdat any

$_ZNK9__gnu_cxx13new_allocatorISt10shared_ptrIN2cl4sycl6detail20PropertyWithDataBaseEEE8max_sizeEv = comdat any

$_ZSt18uninitialized_copyIN9__gnu_cxx17__normal_iteratorIPKSt10shared_ptrIN2cl4sycl6detail20PropertyWithDataBaseEESt6vectorIS7_SaIS7_EEEEPS7_ET0_T_SG_SF_ = comdat any

$_ZNSt20__uninitialized_copyILb0EE13__uninit_copyIN9__gnu_cxx17__normal_iteratorIPKSt10shared_ptrIN2cl4sycl6detail20PropertyWithDataBaseEESt6vectorIS9_SaIS9_EEEEPS9_EET0_T_SI_SH_ = comdat any

$_ZN9__gnu_cxxneIPKSt10shared_ptrIN2cl4sycl6detail20PropertyWithDataBaseEESt6vectorIS6_SaIS6_EEEEbRKNS_17__normal_iteratorIT_T0_EESH_ = comdat any

$_ZSt10_ConstructISt10shared_ptrIN2cl4sycl6detail20PropertyWithDataBaseEEJRKS5_EEvPT_DpOT0_ = comdat any

$_ZNK9__gnu_cxx17__normal_iteratorIPKSt10shared_ptrIN2cl4sycl6detail20PropertyWithDataBaseEESt6vectorIS6_SaIS6_EEEdeEv = comdat any

$_ZN9__gnu_cxx17__normal_iteratorIPKSt10shared_ptrIN2cl4sycl6detail20PropertyWithDataBaseEESt6vectorIS6_SaIS6_EEEppEv = comdat any

$_ZNK9__gnu_cxx17__normal_iteratorIPKSt10shared_ptrIN2cl4sycl6detail20PropertyWithDataBaseEESt6vectorIS6_SaIS6_EEE4baseEv = comdat any

$_ZSt7forwardIRKSt10shared_ptrIN2cl4sycl6detail20PropertyWithDataBaseEEEOT_RNSt16remove_referenceIS8_E4typeE = comdat any

$_ZNSt10shared_ptrIN2cl4sycl6detail20PropertyWithDataBaseEEC2ERKS4_ = comdat any

$_ZNSt12__shared_ptrIN2cl4sycl6detail20PropertyWithDataBaseELN9__gnu_cxx12_Lock_policyE2EEC2ERKS6_ = comdat any

$_ZNSt14__shared_countILN9__gnu_cxx12_Lock_policyE2EEC2ERKS2_ = comdat any

$_ZNSt16_Sp_counted_baseILN9__gnu_cxx12_Lock_policyE2EE15_M_add_ref_copyEv = comdat any

$_ZN9__gnu_cxx17__normal_iteratorIPKSt10shared_ptrIN2cl4sycl6detail20PropertyWithDataBaseEESt6vectorIS6_SaIS6_EEEC2ERKS8_ = comdat any

$_ZNSt10shared_ptrIN2cl4sycl6detail10event_implEEC2Ev = comdat any

$_ZNSt12__shared_ptrIN2cl4sycl6detail10event_implELN9__gnu_cxx12_Lock_policyE2EEC2Ev = comdat any

$_ZNSt10shared_ptrIN2cl4sycl6detail12context_implEEC2Ev = comdat any

$_ZNSt12__shared_ptrIN2cl4sycl6detail12context_implELN9__gnu_cxx12_Lock_policyE2EEC2Ev = comdat any

$_ZNSt10shared_ptrIKvEC2Ev = comdat any

$_ZNSt12__shared_ptrIKvLN9__gnu_cxx12_Lock_policyE2EEC2Ev = comdat any

$_ZNSt10shared_ptrIN2cl4sycl6detail12MemObjRecordEED2Ev = comdat any

$_ZNSt12__shared_ptrIN2cl4sycl6detail12MemObjRecordELN9__gnu_cxx12_Lock_policyE2EED2Ev = comdat any

$_ZNK2cl4sycl6detail16PropertyListBase19has_property_helperINS0_3ext6oneapi8property6buffer22use_pinned_host_memoryEEENSt9enable_ifIXsr3std10is_base_ofINS1_20DataLessPropertyBaseET_EE5valueEbE4typeEv = comdat any

$_ZNKSt6bitsetILm32EEixEm = comdat any

$_ZNKSt6bitsetILm32EE15_Unchecked_testEm = comdat any

$_ZNKSt12_Base_bitsetILm1EE10_M_getwordEm = comdat any

$_ZNSt12_Base_bitsetILm1EE10_S_maskbitEm = comdat any

$_ZNSt12_Base_bitsetILm1EE11_S_whichbitEm = comdat any

$_ZN2cl4sycl12device_errorC2EPKci = comdat any

$_ZN2cl4sycl20invalid_object_errorD0Ev = comdat any

$_ZNSt7__cxx1112basic_stringIcSt11char_traitsIcESaIcEEC2IS3_EEPKcRKS3_ = comdat any

$_ZN2cl4sycl12device_errorC2ERKNSt7__cxx1112basic_stringIcSt11char_traitsIcESaIcEEEi = comdat any

$_ZNSt7__cxx1112basic_stringIcSt11char_traitsIcESaIcEE12_M_constructIPKcEEvT_S8_ = comdat any

$_ZNSt11char_traitsIcE6lengthEPKc = comdat any

$_ZNSt7__cxx1112basic_stringIcSt11char_traitsIcESaIcEE12_Alloc_hiderD2Ev = comdat any

$_ZNSt7__cxx1112basic_stringIcSt11char_traitsIcESaIcEE16_M_construct_auxIPKcEEvT_S8_St12__false_type = comdat any

$_ZNSt7__cxx1112basic_stringIcSt11char_traitsIcESaIcEE12_M_constructIPKcEEvT_S8_St20forward_iterator_tag = comdat any

$_ZN9__gnu_cxx17__is_null_pointerIKcEEbPT_ = comdat any

$_ZSt8distanceIPKcENSt15iterator_traitsIT_E15difference_typeES3_S3_ = comdat any

$_ZSt10__distanceIPKcENSt15iterator_traitsIT_E15difference_typeES3_S3_St26random_access_iterator_tag = comdat any

$_ZSt19__iterator_categoryIPKcENSt15iterator_traitsIT_E17iterator_categoryERKS3_ = comdat any

$_ZN9__gnu_cxx11char_traitsIcE6lengthEPKc = comdat any

$_ZN9__gnu_cxx11char_traitsIcE2eqERKcS3_ = comdat any

$_ZNSt10shared_ptrIN2cl4sycl7contextEEC2EDn = comdat any

$_ZN2cl4sycl9exceptionC2ERKNSt7__cxx1112basic_stringIcSt11char_traitsIcESaIcEEEiSt10shared_ptrINS0_7contextEE = comdat any

$_ZNSt10shared_ptrIN2cl4sycl7contextEED2Ev = comdat any

$_ZN2cl4sycl12device_errorD2Ev = comdat any

$_ZN2cl4sycl12device_errorD0Ev = comdat any

$_ZNSt10shared_ptrIN2cl4sycl7contextEEC2Ev = comdat any

$_ZNSt12__shared_ptrIN2cl4sycl7contextELN9__gnu_cxx12_Lock_policyE2EEC2Ev = comdat any

$_ZNSt9exceptionC2Ev = comdat any

$_ZStplIcSt11char_traitsIcESaIcEENSt7__cxx1112basic_stringIT_T0_T1_EEOS8_S9_ = comdat any

$_ZStplIcSt11char_traitsIcESaIcEENSt7__cxx1112basic_stringIT_T0_T1_EERKS8_PKS5_ = comdat any

$_ZNSt10shared_ptrIN2cl4sycl7contextEEC2ERKS3_ = comdat any

$_ZSt4moveIRNSt7__cxx1112basic_stringIcSt11char_traitsIcESaIcEEEEONSt16remove_referenceIT_E4typeEOS8_ = comdat any

$_ZStplIcSt11char_traitsIcESaIcEENSt7__cxx1112basic_stringIT_T0_T1_EEOS8_PKS5_ = comdat any

$_ZNSt7__cxx119to_stringEi = comdat any

$_ZN9__gnu_cxx12__to_xstringINSt7__cxx1112basic_stringIcSt11char_traitsIcESaIcEEEcEET_PFiPT0_mPKS8_P13__va_list_tagEmSB_z = comdat any

$_ZNSt7__cxx1112basic_stringIcSt11char_traitsIcESaIcEEC2IPcvEET_S7_RKS3_ = comdat any

$_ZNSt7__cxx1112basic_stringIcSt11char_traitsIcESaIcEE12_M_constructIPcEEvT_S7_ = comdat any

$_ZNSt7__cxx1112basic_stringIcSt11char_traitsIcESaIcEE16_M_construct_auxIPcEEvT_S7_St12__false_type = comdat any

$_ZNSt7__cxx1112basic_stringIcSt11char_traitsIcESaIcEE12_M_constructIPcEEvT_S7_St20forward_iterator_tag = comdat any

$_ZN9__gnu_cxx17__is_null_pointerIcEEbPT_ = comdat any

$_ZSt8distanceIPcENSt15iterator_traitsIT_E15difference_typeES2_S2_ = comdat any

$_ZSt10__distanceIPcENSt15iterator_traitsIT_E15difference_typeES2_S2_St26random_access_iterator_tag = comdat any

$_ZSt19__iterator_categoryIPcENSt15iterator_traitsIT_E17iterator_categoryERKS2_ = comdat any

$_ZNSt12__shared_ptrIN2cl4sycl7contextELN9__gnu_cxx12_Lock_policyE2EEC2ERKS5_ = comdat any

$_ZNSt12__shared_ptrIN2cl4sycl7contextELN9__gnu_cxx12_Lock_policyE2EED2Ev = comdat any

$_ZN2cl4sycl9exceptionD2Ev = comdat any

$_ZN2cl4sycl6detail11SYCLMemObjT14set_final_dataIPcEENSt9enable_ifIXsr3std10is_pointerIT_EE5valueEvE4typeES6_ = comdat any

$_ZN2cl4sycl6detail11SYCLMemObjT15canReuseHostPtrEPvm = comdat any

$_ZN2cl4sycl6detail11SYCLMemObjT8setAlignEm = comdat any

$_ZNSt8functionIFvvEEaSEDn = comdat any

$_ZNSt8functionIFvvEEaSIZN2cl4sycl6detail11SYCLMemObjT14set_final_dataIPcEENSt9enable_ifIXsr3std10is_pointerIT_EE5valueEvE4typeESA_EUlvE_EENS9_IXsrNS1_9_CallableINSt5decayISA_E4typeESt15__invoke_resultIRSH_JEEEE5valueERS1_E4typeEOSA_ = comdat any

$_ZSt7forwardIZN2cl4sycl6detail11SYCLMemObjT14set_final_dataIPcEENSt9enable_ifIXsr3std10is_pointerIT_EE5valueEvE4typeES7_EUlvE_EOS7_RNSt16remove_referenceIS7_E4typeE = comdat any

$_ZNSt8functionIFvvEEC2IZN2cl4sycl6detail11SYCLMemObjT14set_final_dataIPcEENSt9enable_ifIXsr3std10is_pointerIT_EE5valueEvE4typeESA_EUlvE_vvEESA_ = comdat any

$_ZNSt8functionIFvvEE4swapERS1_ = comdat any

$_ZNSt8functionIFvvEED2Ev = comdat any

$_ZNSt14_Function_base13_Base_managerIZN2cl4sycl6detail11SYCLMemObjT14set_final_dataIPcEENSt9enable_ifIXsr3std10is_pointerIT_EE5valueEvE4typeES8_EUlvE_E21_M_not_empty_functionISB_EEbRKS8_ = comdat any

$_ZNSt14_Function_base13_Base_managerIZN2cl4sycl6detail11SYCLMemObjT14set_final_dataIPcEENSt9enable_ifIXsr3std10is_pointerIT_EE5valueEvE4typeES8_EUlvE_E15_M_init_functorERSt9_Any_dataOSB_ = comdat any

$_ZSt4moveIRZN2cl4sycl6detail11SYCLMemObjT14set_final_dataIPcEENSt9enable_ifIXsr3std10is_pointerIT_EE5valueEvE4typeES7_EUlvE_EONSt16remove_referenceIS7_E4typeEOS7_ = comdat any

$_ZNSt17_Function_handlerIFvvEZN2cl4sycl6detail11SYCLMemObjT14set_final_dataIPcEENSt9enable_ifIXsr3std10is_pointerIT_EE5valueEvE4typeES8_EUlvE_E9_M_invokeERKSt9_Any_data = comdat any

$_ZNSt14_Function_base13_Base_managerIZN2cl4sycl6detail11SYCLMemObjT14set_final_dataIPcEENSt9enable_ifIXsr3std10is_pointerIT_EE5valueEvE4typeES8_EUlvE_E10_M_managerERSt9_Any_dataRKSD_St18_Manager_operation = comdat any

$_ZNSt14_Function_base13_Base_managerIZN2cl4sycl6detail11SYCLMemObjT14set_final_dataIPcEENSt9enable_ifIXsr3std10is_pointerIT_EE5valueEvE4typeES8_EUlvE_E15_M_init_functorERSt9_Any_dataOSB_St17integral_constantIbLb1EE = comdat any

$_ZNSt9_Any_data9_M_accessEv = comdat any

$_ZNSt14_Function_base13_Base_managerIZN2cl4sycl6detail11SYCLMemObjT14set_final_dataIPcEENSt9enable_ifIXsr3std10is_pointerIT_EE5valueEvE4typeES8_EUlvE_E14_M_get_pointerERKSt9_Any_data = comdat any

$_ZZN2cl4sycl6detail11SYCLMemObjT14set_final_dataIPcEENSt9enable_ifIXsr3std10is_pointerIT_EE5valueEvE4typeES6_ENKUlvE_clEv = comdat any

$_ZNKSt9_Any_data9_M_accessIZN2cl4sycl6detail11SYCLMemObjT14set_final_dataIPcEENSt9enable_ifIXsr3std10is_pointerIT_EE5valueEvE4typeES8_EUlvE_EERKS8_v = comdat any

$_ZSt11__addressofIKZN2cl4sycl6detail11SYCLMemObjT14set_final_dataIPcEENSt9enable_ifIXsr3std10is_pointerIT_EE5valueEvE4typeES7_EUlvE_EPS7_RS7_ = comdat any

$_ZNKSt9_Any_data9_M_accessEv = comdat any

$_ZNSt9_Any_data9_M_accessIPKSt9type_infoEERT_v = comdat any

$_ZNSt9_Any_data9_M_accessIPZN2cl4sycl6detail11SYCLMemObjT14set_final_dataIPcEENSt9enable_ifIXsr3std10is_pointerIT_EE5valueEvE4typeES8_EUlvE_EERS8_v = comdat any

$_ZNSt14_Function_base13_Base_managerIZN2cl4sycl6detail11SYCLMemObjT14set_final_dataIPcEENSt9enable_ifIXsr3std10is_pointerIT_EE5valueEvE4typeES8_EUlvE_E8_M_cloneERSt9_Any_dataRKSD_St17integral_constantIbLb1EE = comdat any

$_ZNSt14_Function_base13_Base_managerIZN2cl4sycl6detail11SYCLMemObjT14set_final_dataIPcEENSt9enable_ifIXsr3std10is_pointerIT_EE5valueEvE4typeES8_EUlvE_E10_M_destroyERSt9_Any_dataSt17integral_constantIbLb1EE = comdat any

$_ZNSt9_Any_data9_M_accessIZN2cl4sycl6detail11SYCLMemObjT14set_final_dataIPcEENSt9enable_ifIXsr3std10is_pointerIT_EE5valueEvE4typeES8_EUlvE_EERS8_v = comdat any

$_ZSt4swapISt9_Any_dataENSt9enable_ifIXsr6__and_ISt6__not_ISt15__is_tuple_likeIT_EESt21is_move_constructibleIS4_ESt18is_move_assignableIS4_EEE5valueEvE4typeERS4_SD_ = comdat any

$_ZSt4swapIPFbRSt9_Any_dataRKS0_St18_Manager_operationEENSt9enable_ifIXsr6__and_ISt6__not_ISt15__is_tuple_likeIT_EESt21is_move_constructibleISA_ESt18is_move_assignableISA_EEE5valueEvE4typeERSA_SJ_ = comdat any

$_ZSt4swapIPFvRKSt9_Any_dataEENSt9enable_ifIXsr6__and_ISt6__not_ISt15__is_tuple_likeIT_EESt21is_move_constructibleIS8_ESt18is_move_assignableIS8_EEE5valueEvE4typeERS8_SH_ = comdat any

$_ZSt4moveIRSt9_Any_dataEONSt16remove_referenceIT_E4typeEOS3_ = comdat any

$_ZSt4moveIRPFbRSt9_Any_dataRKS0_St18_Manager_operationEEONSt16remove_referenceIT_E4typeEOS9_ = comdat any

$_ZSt4moveIRPFvRKSt9_Any_dataEEONSt16remove_referenceIT_E4typeEOS7_ = comdat any

$_ZN2cl4sycl6detail11SYCLMemObjT10useHostPtrEv = comdat any

$_ZNK2cl4sycl6detail11SYCLMemObjT12has_propertyINS0_8property6buffer12use_host_ptrEEEbv = comdat any

$_ZNK2cl4sycl6detail11SYCLMemObjT12has_propertyINS0_8property5image12use_host_ptrEEEbv = comdat any

$_ZNK2cl4sycl13property_list12has_propertyINS0_8property6buffer12use_host_ptrEEEbv = comdat any

$_ZNK2cl4sycl6detail16PropertyListBase19has_property_helperINS0_8property6buffer12use_host_ptrEEENSt9enable_ifIXsr3std10is_base_ofINS1_20DataLessPropertyBaseET_EE5valueEbE4typeEv = comdat any

$_ZNK2cl4sycl13property_list12has_propertyINS0_8property5image12use_host_ptrEEEbv = comdat any

$_ZNK2cl4sycl6detail16PropertyListBase19has_property_helperINS0_8property5image12use_host_ptrEEENSt9enable_ifIXsr3std10is_base_ofINS1_20DataLessPropertyBaseET_EE5valueEbE4typeEv = comdat any

$_ZNKSt10unique_ptrIN2cl4sycl6detail19SYCLMemObjAllocatorESt14default_deleteIS3_EEptEv = comdat any

$_ZNSt10shared_ptrIKvED2Ev = comdat any

$_ZNSt10shared_ptrIN2cl4sycl6detail12context_implEED2Ev = comdat any

$_ZNSt12__shared_ptrIKvLN9__gnu_cxx12_Lock_policyE2EED2Ev = comdat any

$_ZNSt12__shared_ptrIN2cl4sycl6detail12context_implELN9__gnu_cxx12_Lock_policyE2EED2Ev = comdat any

$_ZNKSt14default_deleteIN2cl4sycl6detail19SYCLMemObjAllocatorEEclEPS3_ = comdat any

$_ZSt4moveIRPN2cl4sycl6detail19SYCLMemObjAllocatorEEONSt16remove_referenceIT_E4typeEOS7_ = comdat any

$_ZNSt14_Sp_ebo_helperILi0ESaIN2cl4sycl6detail11buffer_implEELb1EED2Ev = comdat any

$_ZN9__gnu_cxx13new_allocatorIN2cl4sycl6detail11buffer_implEED2Ev = comdat any

$_ZNSt16allocator_traitsISaIN2cl4sycl6detail11buffer_implEEE7destroyIS3_EEvRS4_PT_ = comdat any

$_ZNSt23_Sp_counted_ptr_inplaceIN2cl4sycl6detail11buffer_implESaIS3_ELN9__gnu_cxx12_Lock_policyE2EE5_Impl8_M_allocEv = comdat any

$_ZN9__gnu_cxx13new_allocatorIN2cl4sycl6detail11buffer_implEE7destroyIS4_EEvPT_ = comdat any

$_ZN2cl4sycl6detail11buffer_implD2Ev = comdat any

$_ZNSt14_Sp_ebo_helperILi0ESaIN2cl4sycl6detail11buffer_implEELb1EE6_S_getERS5_ = comdat any

$_ZNSt19_Sp_make_shared_tag5_S_tiEv = comdat any

$_ZNKSt9type_infoeqERKS_ = comdat any

$_ZN9__gnu_cxx16__aligned_bufferIN2cl4sycl6detail11buffer_implEE6_M_ptrEv = comdat any

$_ZN9__gnu_cxx16__aligned_bufferIN2cl4sycl6detail11buffer_implEE7_M_addrEv = comdat any

$_ZNSt16allocator_traitsISaISt23_Sp_counted_ptr_inplaceIN2cl4sycl6detail11buffer_implESaIS4_ELN9__gnu_cxx12_Lock_policyE2EEEE10deallocateERS9_PS8_m = comdat any

$_ZN9__gnu_cxx13new_allocatorISt23_Sp_counted_ptr_inplaceIN2cl4sycl6detail11buffer_implESaIS5_ELNS_12_Lock_policyE2EEE10deallocateEPS8_m = comdat any

$_ZN9__gnu_cxx13new_allocatorISt23_Sp_counted_ptr_inplaceIN2cl4sycl6detail11buffer_implESaIS5_ELNS_12_Lock_policyE2EEED2Ev = comdat any

$_ZN9__gnu_cxx13new_allocatorIN2cl4sycl6detail11buffer_implEEC2Ev = comdat any

$_ZNK2cl4sycl5rangeILi1EE4sizeEv = comdat any

$_ZNK2cl4sycl6detail5arrayILi1EE3getEi = comdat any

$_ZN2cl4sycl23invalid_parameter_errorCI2NS0_13runtime_errorEEPKci = comdat any

$_ZN2cl4sycl23invalid_parameter_errorD2Ev = comdat any

$_ZN2cl4sycl23invalid_parameter_errorD0Ev = comdat any

$_ZN2cl4sycl13runtime_errorC2ERKNSt7__cxx1112basic_stringIcSt11char_traitsIcESaIcEEEi = comdat any

$_ZN2cl4sycl13runtime_errorD2Ev = comdat any

$_ZN2cl4sycl13runtime_errorD0Ev = comdat any

$_ZN2cl4sycl6detail23getNextPowerOfTwoHelperEmm = comdat any

$_ZN2cl4sycl6detail25SYCLMemObjAllocatorHolderINS1_17aligned_allocatorIcEEEC2Ev = comdat any

$_ZNSt10unique_ptrIN2cl4sycl6detail25SYCLMemObjAllocatorHolderINS2_17aligned_allocatorIcEEEESt14default_deleteIS6_EEC2IS8_vEEPS6_ = comdat any

$_ZN2cl4sycl6detail19SYCLMemObjAllocatorC2Ev = comdat any

$_ZN2cl4sycl6detail17aligned_allocatorIcEC2Ev = comdat any

$_ZN2cl4sycl6detail25SYCLMemObjAllocatorHolderINS1_17aligned_allocatorIcEEE16getAllocatorImplEv = comdat any

$_ZN2cl4sycl6detail25SYCLMemObjAllocatorHolderINS1_17aligned_allocatorIcEEED2Ev = comdat any

$_ZN2cl4sycl6detail25SYCLMemObjAllocatorHolderINS1_17aligned_allocatorIcEEED0Ev = comdat any

$_ZN2cl4sycl6detail25SYCLMemObjAllocatorHolderINS1_17aligned_allocatorIcEEE8allocateEm = comdat any

$_ZN2cl4sycl6detail25SYCLMemObjAllocatorHolderINS1_17aligned_allocatorIcEEE10deallocateEPvm = comdat any

$_ZNK2cl4sycl6detail25SYCLMemObjAllocatorHolderINS1_17aligned_allocatorIcEEE12getValueSizeEv = comdat any

$_ZN2cl4sycl6detail25SYCLMemObjAllocatorHolderINS1_17aligned_allocatorIcEEE12setAlignmentEm = comdat any

$_ZN2cl4sycl6detail19SYCLMemObjAllocatorD2Ev = comdat any

$_ZN2cl4sycl6detail19SYCLMemObjAllocatorD0Ev = comdat any

$_ZN2cl4sycl6detail17aligned_allocatorIcE8allocateEm = comdat any

$_ZNSt9bad_allocC2Ev = comdat any

$_ZN2cl4sycl6detail17aligned_allocatorIcE10deallocateEPcm = comdat any

$_ZN2cl4sycl6detail25SYCLMemObjAllocatorHolderINS1_17aligned_allocatorIcEEE12setAlignImplIS4_EENSt9enable_ifIXsr3std7is_sameIT_S4_EE5valueEvE4typeEm = comdat any

$_ZN2cl4sycl6detail17aligned_allocatorIcE12setAlignmentEm = comdat any

$_ZSt3maxImERKT_S2_S2_ = comdat any

$_ZNSt15__uniq_ptr_implIN2cl4sycl6detail25SYCLMemObjAllocatorHolderINS2_17aligned_allocatorIcEEEESt14default_deleteIS6_EEC2EPS6_ = comdat any

$_ZNSt5tupleIJPN2cl4sycl6detail25SYCLMemObjAllocatorHolderINS2_17aligned_allocatorIcEEEESt14default_deleteIS6_EEEC2IS7_S9_Lb1EEEv = comdat any

$_ZNSt11_Tuple_implILm0EJPN2cl4sycl6detail25SYCLMemObjAllocatorHolderINS2_17aligned_allocatorIcEEEESt14default_deleteIS6_EEEC2Ev = comdat any

$_ZNSt11_Tuple_implILm1EJSt14default_deleteIN2cl4sycl6detail25SYCLMemObjAllocatorHolderINS3_17aligned_allocatorIcEEEEEEEC2Ev = comdat any

$_ZNSt10_Head_baseILm0EPN2cl4sycl6detail25SYCLMemObjAllocatorHolderINS2_17aligned_allocatorIcEEEELb0EEC2Ev = comdat any

$_ZNSt10_Head_baseILm1ESt14default_deleteIN2cl4sycl6detail25SYCLMemObjAllocatorHolderINS3_17aligned_allocatorIcEEEEELb1EEC2Ev = comdat any

$_ZNSt12__shared_ptrIN2cl4sycl6detail11buffer_implELN9__gnu_cxx12_Lock_policyE2EEaSEOS6_ = comdat any

$_ZSt4moveIRSt10shared_ptrIN2cl4sycl6detail11buffer_implEEEONSt16remove_referenceIT_E4typeEOS8_ = comdat any

$_ZSt4moveIRSt12__shared_ptrIN2cl4sycl6detail11buffer_implELN9__gnu_cxx12_Lock_policyE2EEEONSt16remove_referenceIT_E4typeEOSA_ = comdat any

$_ZNSt12__shared_ptrIN2cl4sycl6detail11buffer_implELN9__gnu_cxx12_Lock_policyE2EEC2EOS6_ = comdat any

$_ZNSt12__shared_ptrIN2cl4sycl6detail11buffer_implELN9__gnu_cxx12_Lock_policyE2EE4swapERS6_ = comdat any

$_ZNSt12__shared_ptrIN2cl4sycl6detail11buffer_implELN9__gnu_cxx12_Lock_policyE2EED2Ev = comdat any

$_ZNSt14__shared_countILN9__gnu_cxx12_Lock_policyE2EE7_M_swapERS2_ = comdat any

$_ZSt4swapIPN2cl4sycl6detail11buffer_implEENSt9enable_ifIXsr6__and_ISt6__not_ISt15__is_tuple_likeIT_EESt21is_move_constructibleIS8_ESt18is_move_assignableIS8_EEE5valueEvE4typeERS8_SH_ = comdat any

$_ZSt4moveIRPN2cl4sycl6detail11buffer_implEEONSt16remove_referenceIT_E4typeEOS7_ = comdat any

$_ZNKSt14default_deleteIN2cl4sycl6detail25SYCLMemObjAllocatorHolderINS2_17aligned_allocatorIcEEEEEclEPS6_ = comdat any

$_ZSt4moveIRPN2cl4sycl6detail25SYCLMemObjAllocatorHolderINS2_17aligned_allocatorIcEEEEEONSt16remove_referenceIT_E4typeEOSA_ = comdat any

$_ZNSt8functionIFvRN2cl4sycl7handlerEEED2Ev = comdat any

$_ZSt7forwardIRN2cl4sycl7handlerEEOT_RNSt16remove_referenceIS4_E4typeE = comdat any

$_ZN2cl4sycl8accessorIfLi1ELNS0_6access4modeE1024ELNS2_6targetE2014ELNS2_11placeholderE0ENS0_6ONEAPI22accessor_property_listIJEEEEC2IfLi1ENS0_6detail17aligned_allocatorIcEENS0_10mode_tag_tILS3_1024EEEvEERNS0_6bufferIT_XT0_ET1_NSt9enable_ifIXaagtT0_Li0EleT0_Li3EEvE4typeEEERNS0_7handlerET2_RKNS0_13property_listE = comdat any

$_ZN2cl4sycl8accessorIfLi1ELNS0_6access4modeE1025ELNS2_6targetE2014ELNS2_11placeholderE0ENS0_6ONEAPI22accessor_property_listIJEEEEC2IfLi1ENS0_6detail17aligned_allocatorIcEENS0_10mode_tag_tILS3_1025EEEvEERNS0_6bufferIT_XT0_ET1_NSt9enable_ifIXaagtT0_Li0EleT0_Li3EEvE4typeEEERNS0_7handlerET2_RKNS0_13property_listE = comdat any

$_ZN2cl4sycl8accessorIfLi1ELNS0_6access4modeE1026ELNS2_6targetE2016ELNS2_11placeholderE0ENS0_6ONEAPI22accessor_property_listIJEEEEC2ILi1EvEENS0_5rangeILi1EEERNS0_7handlerE = comdat any

$_ZN2cl4sycl8accessorIfLi1ELNS0_6access4modeE1026ELNS2_6targetE2016ELNS2_11placeholderE0ENS0_6ONEAPI22accessor_property_listIJEEEEC2ERKS9_ = comdat any

$_ZN2cl4sycl8accessorIfLi1ELNS0_6access4modeE1024ELNS2_6targetE2014ELNS2_11placeholderE0ENS0_6ONEAPI22accessor_property_listIJEEEEC2ERKS9_ = comdat any

$_ZN2cl4sycl8accessorIfLi1ELNS0_6access4modeE1025ELNS2_6targetE2014ELNS2_11placeholderE0ENS0_6ONEAPI22accessor_property_listIJEEEEC2ERKS9_ = comdat any

$_ZN2cl4sycl8accessorIfLi1ELNS0_6access4modeE1026ELNS2_6targetE2016ELNS2_11placeholderE0ENS0_6ONEAPI22accessor_property_listIJEEEED2Ev = comdat any

$_ZN2cl4sycl8accessorIfLi1ELNS0_6access4modeE1025ELNS2_6targetE2014ELNS2_11placeholderE0ENS0_6ONEAPI22accessor_property_listIJEEEED2Ev = comdat any

$_ZN2cl4sycl8accessorIfLi1ELNS0_6access4modeE1024ELNS2_6targetE2014ELNS2_11placeholderE0ENS0_6ONEAPI22accessor_property_listIJEEEED2Ev = comdat any

$_ZN2cl4sycl8accessorIfLi1ELNS0_6access4modeE1024ELNS2_6targetE2014ELNS2_11placeholderE0ENS0_6ONEAPI22accessor_property_listIJEEEEC2IfLi1ENS0_6detail17aligned_allocatorIcEEvEERNS0_6bufferIT_XT0_ET1_NSt9enable_ifIXaagtT0_Li0EleT0_Li3EEvE4typeEEERNS0_7handlerERKNS0_13property_listE = comdat any

$_ZN2cl4sycl2idILi3EEC2ILi3EEENSt9enable_ifIXeqT_Li3EEmE4typeEmm = comdat any

$_ZNK2cl4sycl6bufferIfLi1ENS0_6detail17aligned_allocatorIcEEvE9get_rangeEv = comdat any

$_ZN2cl4sycl8accessorIfLi1ELNS0_6access4modeE1024ELNS2_6targetE2014ELNS2_11placeholderE0ENS0_6ONEAPI22accessor_property_listIJEEEE15getAdjustedModeERKS8_ = comdat any

$_ZN2cl4sycl6ONEAPI22accessor_property_listIJEEC2ERKNS0_13property_listE = comdat any

$_ZN2cl4sycl6detail14getSyclObjImplINS0_6bufferIfLi1ENS1_17aligned_allocatorIcEEvEEEEDtsrT_4implERKS7_ = comdat any

$_ZNKSt12__shared_ptrIN2cl4sycl6detail11buffer_implELN9__gnu_cxx12_Lock_policyE2EE3getEv = comdat any

$_ZN2cl4sycl6detail16AccessorBaseHostC2ENS0_2idILi3EEENS0_5rangeILi3EEES6_NS0_6access4modeEPNS1_11SYCLMemObjIEiiib = comdat any

$_ZN2cl4sycl6ONEAPI22accessor_property_listIJEED2Ev = comdat any

$_ZN2cl4sycl8accessorIfLi1ELNS0_6access4modeE1024ELNS2_6targetE2014ELNS2_11placeholderE0ENS0_6ONEAPI22accessor_property_listIJEEEE29checkDeviceAccessorBufferSizeEm = comdat any

$_ZN2cl4sycl6detail5arrayILi3EEC2ILi3EEENSt9enable_ifIXeqT_Li3EEmE4typeEmm = comdat any

$_ZN2cl4sycl6detail14InitializedValILi3ENS0_5rangeEE3getILi0EEENS3_ILi3EEEv = comdat any

$_ZN2cl4sycl6detail5arrayILi1EEixEi = comdat any

$_ZN2cl4sycl6detail5arrayILi3EEixEi = comdat any

$_ZN2cl4sycl5rangeILi3EEC2ILi3EEENSt9enable_ifIXeqT_Li3EEmE4typeEmm = comdat any

$_ZNK2cl4sycl6ONEAPI22accessor_property_listIJEE12has_propertyINS0_8property7no_initEEENSt9enable_ifIXntsr24is_compile_time_propertyIT_EE5valueEbE4typeEv = comdat any

$_ZNK2cl4sycl6ONEAPI22accessor_property_listIJEE12has_propertyINS0_8property6noinitEEENSt9enable_ifIXntsr24is_compile_time_propertyIT_EE5valueEbE4typeEv = comdat any

$_ZNK2cl4sycl6detail16PropertyListBase19has_property_helperINS0_8property7no_initEEENSt9enable_ifIXsr3std10is_base_ofINS1_20DataLessPropertyBaseET_EE5valueEbE4typeEv = comdat any

$_ZNK2cl4sycl6detail16PropertyListBase19has_property_helperINS0_8property6noinitEEENSt9enable_ifIXsr3std10is_base_ofINS1_20DataLessPropertyBaseET_EE5valueEbE4typeEv = comdat any

$_ZN2cl4sycl6detail16PropertyListBaseC2ESt6bitsetILm32EESt6vectorISt10shared_ptrINS1_20PropertyWithDataBaseEESaIS8_EE = comdat any

$_ZSt4moveIRSt6vectorISt10shared_ptrIN2cl4sycl6detail20PropertyWithDataBaseEESaIS6_EEEONSt16remove_referenceIT_E4typeEOSB_ = comdat any

$_ZNSt6vectorISt10shared_ptrIN2cl4sycl6detail20PropertyWithDataBaseEESaIS5_EEC2EOS7_ = comdat any

$_ZNSt12_Vector_baseISt10shared_ptrIN2cl4sycl6detail20PropertyWithDataBaseEESaIS5_EEC2EOS7_ = comdat any

$_ZNSt12_Vector_baseISt10shared_ptrIN2cl4sycl6detail20PropertyWithDataBaseEESaIS5_EE12_Vector_implC2EOS8_ = comdat any

$_ZSt4moveIRNSt12_Vector_baseISt10shared_ptrIN2cl4sycl6detail20PropertyWithDataBaseEESaIS6_EE12_Vector_implEEONSt16remove_referenceIT_E4typeEOSC_ = comdat any

$_ZNSt12_Vector_baseISt10shared_ptrIN2cl4sycl6detail20PropertyWithDataBaseEESaIS5_EE17_Vector_impl_dataC2EOS8_ = comdat any

$_ZNSt10shared_ptrIN2cl4sycl6detail11buffer_implEEC2ERKS4_ = comdat any

$_ZNSt12__shared_ptrIN2cl4sycl6detail11buffer_implELN9__gnu_cxx12_Lock_policyE2EEC2ERKS6_ = comdat any

$_ZNSt10shared_ptrIN2cl4sycl6detail16AccessorImplHostEEC2Ev = comdat any

$_ZN2cl4sycl6detail16AccessorImplHostC2ENS0_2idILi3EEENS0_5rangeILi3EEES6_NS0_6access4modeEPNS1_11SYCLMemObjIEiiibb = comdat any

$_ZNSt10shared_ptrIN2cl4sycl6detail16AccessorImplHostEEC2IS3_vEEPT_ = comdat any

$_ZNSt10shared_ptrIN2cl4sycl6detail16AccessorImplHostEEaSEOS4_ = comdat any

$_ZNSt12__shared_ptrIN2cl4sycl6detail16AccessorImplHostELN9__gnu_cxx12_Lock_policyE2EEC2Ev = comdat any

$_ZNSt12__shared_ptrIN2cl4sycl6detail16AccessorImplHostELN9__gnu_cxx12_Lock_policyE2EEC2IS3_vEEPT_ = comdat any

$_ZNSt14__shared_countILN9__gnu_cxx12_Lock_policyE2EEC2IPN2cl4sycl6detail16AccessorImplHostEEET_St17integral_constantIbLb0EE = comdat any

$_ZNSt12__shared_ptrIN2cl4sycl6detail16AccessorImplHostELN9__gnu_cxx12_Lock_policyE2EE31_M_enable_shared_from_this_withIS3_S3_EENSt9enable_ifIXntsr15__has_esft_baseIT0_EE5valueEvE4typeEPT_ = comdat any

$_ZNSt14__shared_countILN9__gnu_cxx12_Lock_policyE2EEC2IPN2cl4sycl6detail16AccessorImplHostEEET_ = comdat any

$_ZNSt15_Sp_counted_ptrIPN2cl4sycl6detail16AccessorImplHostELN9__gnu_cxx12_Lock_policyE2EEC2ES4_ = comdat any

$_ZNSt15_Sp_counted_ptrIPN2cl4sycl6detail16AccessorImplHostELN9__gnu_cxx12_Lock_policyE2EED2Ev = comdat any

$_ZNSt15_Sp_counted_ptrIPN2cl4sycl6detail16AccessorImplHostELN9__gnu_cxx12_Lock_policyE2EED0Ev = comdat any

$_ZNSt15_Sp_counted_ptrIPN2cl4sycl6detail16AccessorImplHostELN9__gnu_cxx12_Lock_policyE2EE10_M_disposeEv = comdat any

$_ZNSt15_Sp_counted_ptrIPN2cl4sycl6detail16AccessorImplHostELN9__gnu_cxx12_Lock_policyE2EE10_M_destroyEv = comdat any

$_ZNSt15_Sp_counted_ptrIPN2cl4sycl6detail16AccessorImplHostELN9__gnu_cxx12_Lock_policyE2EE14_M_get_deleterERKSt9type_info = comdat any

$_ZNSt12__shared_ptrIN2cl4sycl6detail16AccessorImplHostELN9__gnu_cxx12_Lock_policyE2EEaSEOS6_ = comdat any

$_ZSt4moveIRSt10shared_ptrIN2cl4sycl6detail16AccessorImplHostEEEONSt16remove_referenceIT_E4typeEOS8_ = comdat any

$_ZSt4moveIRSt12__shared_ptrIN2cl4sycl6detail16AccessorImplHostELN9__gnu_cxx12_Lock_policyE2EEEONSt16remove_referenceIT_E4typeEOSA_ = comdat any

$_ZNSt12__shared_ptrIN2cl4sycl6detail16AccessorImplHostELN9__gnu_cxx12_Lock_policyE2EEC2EOS6_ = comdat any

$_ZNSt12__shared_ptrIN2cl4sycl6detail16AccessorImplHostELN9__gnu_cxx12_Lock_policyE2EE4swapERS6_ = comdat any

$_ZNSt12__shared_ptrIN2cl4sycl6detail16AccessorImplHostELN9__gnu_cxx12_Lock_policyE2EED2Ev = comdat any

$_ZSt4swapIPN2cl4sycl6detail16AccessorImplHostEENSt9enable_ifIXsr6__and_ISt6__not_ISt15__is_tuple_likeIT_EESt21is_move_constructibleIS8_ESt18is_move_assignableIS8_EEE5valueEvE4typeERS8_SH_ = comdat any

$_ZSt4moveIRPN2cl4sycl6detail16AccessorImplHostEEONSt16remove_referenceIT_E4typeEOS7_ = comdat any

$_ZN2cl4sycl8accessorIfLi1ELNS0_6access4modeE1025ELNS2_6targetE2014ELNS2_11placeholderE0ENS0_6ONEAPI22accessor_property_listIJEEEEC2IfLi1ENS0_6detail17aligned_allocatorIcEEvEERNS0_6bufferIT_XT0_ET1_NSt9enable_ifIXaagtT0_Li0EleT0_Li3EEvE4typeEEERNS0_7handlerERKNS0_13property_listE = comdat any

$_ZN2cl4sycl8accessorIfLi1ELNS0_6access4modeE1025ELNS2_6targetE2014ELNS2_11placeholderE0ENS0_6ONEAPI22accessor_property_listIJEEEE15getAdjustedModeERKS8_ = comdat any

$_ZN2cl4sycl8accessorIfLi1ELNS0_6access4modeE1025ELNS2_6targetE2014ELNS2_11placeholderE0ENS0_6ONEAPI22accessor_property_listIJEEEE29checkDeviceAccessorBufferSizeEm = comdat any

$_ZN2cl4sycl6detail21LocalAccessorBaseHostC2ENS0_5rangeILi3EEEii = comdat any

$_ZNSt10shared_ptrIN2cl4sycl6detail21LocalAccessorImplHostEEC2Ev = comdat any

$_ZN2cl4sycl6detail21LocalAccessorImplHostC2ENS0_5rangeILi3EEEii = comdat any

$_ZNSt10shared_ptrIN2cl4sycl6detail21LocalAccessorImplHostEEC2IS3_vEEPT_ = comdat any

$_ZNSt10shared_ptrIN2cl4sycl6detail21LocalAccessorImplHostEEaSEOS4_ = comdat any

$_ZNSt10shared_ptrIN2cl4sycl6detail21LocalAccessorImplHostEED2Ev = comdat any

$_ZNSt12__shared_ptrIN2cl4sycl6detail21LocalAccessorImplHostELN9__gnu_cxx12_Lock_policyE2EEC2Ev = comdat any

$_ZNSt6vectorIcSaIcEEC2EmRKS0_ = comdat any

$_ZNSt6vectorIcSaIcEE17_S_check_init_lenEmRKS0_ = comdat any

$_ZNSt12_Vector_baseIcSaIcEEC2EmRKS0_ = comdat any

$_ZNSt6vectorIcSaIcEE21_M_default_initializeEm = comdat any

$_ZNSt12_Vector_baseIcSaIcEED2Ev = comdat any

$_ZNSt6vectorIcSaIcEE11_S_max_sizeERKS0_ = comdat any

$_ZNSt16allocator_traitsISaIcEE8max_sizeERKS0_ = comdat any

$_ZSt3minImERKT_S2_S2_ = comdat any

$_ZNK9__gnu_cxx13new_allocatorIcE8max_sizeEv = comdat any

$_ZNSt12_Vector_baseIcSaIcEE12_Vector_implC2ERKS0_ = comdat any

$_ZNSt12_Vector_baseIcSaIcEE17_M_create_storageEm = comdat any

$_ZNSt12_Vector_baseIcSaIcEE12_Vector_implD2Ev = comdat any

$_ZNSt12_Vector_baseIcSaIcEE17_Vector_impl_dataC2Ev = comdat any

$_ZNSt12_Vector_baseIcSaIcEE11_M_allocateEm = comdat any

$_ZNSt16allocator_traitsISaIcEE8allocateERS0_m = comdat any

$_ZN9__gnu_cxx13new_allocatorIcE8allocateEmPKv = comdat any

$_ZSt27__uninitialized_default_n_aIPcmcET_S1_T0_RSaIT1_E = comdat any

$_ZNSt12_Vector_baseIcSaIcEE19_M_get_Tp_allocatorEv = comdat any

$_ZSt25__uninitialized_default_nIPcmET_S1_T0_ = comdat any

$_ZNSt27__uninitialized_default_n_1ILb1EE18__uninit_default_nIPcmEET_S3_T0_ = comdat any

$_ZSt6fill_nIPcmcET_S1_T0_RKT1_ = comdat any

$_ZSt12__niter_wrapIPcET_RKS1_S1_ = comdat any

$_ZSt10__fill_n_aImcEN9__gnu_cxx11__enable_ifIXsr9__is_byteIT0_EE7__valueEPS2_E6__typeES3_T_RKS2_ = comdat any

$_ZSt12__niter_baseIPcET_S1_ = comdat any

$_ZSt8__fill_aIcEN9__gnu_cxx11__enable_ifIXsr9__is_byteIT_EE7__valueEvE6__typeEPS2_S5_RKS2_ = comdat any

$_ZNSt12_Vector_baseIcSaIcEE13_M_deallocateEPcm = comdat any

$_ZNSt16allocator_traitsISaIcEE10deallocateERS0_Pcm = comdat any

$_ZN9__gnu_cxx13new_allocatorIcE10deallocateEPcm = comdat any

$_ZNSt12__shared_ptrIN2cl4sycl6detail21LocalAccessorImplHostELN9__gnu_cxx12_Lock_policyE2EEC2IS3_vEEPT_ = comdat any

$_ZNSt14__shared_countILN9__gnu_cxx12_Lock_policyE2EEC2IPN2cl4sycl6detail21LocalAccessorImplHostEEET_St17integral_constantIbLb0EE = comdat any

$_ZNSt12__shared_ptrIN2cl4sycl6detail21LocalAccessorImplHostELN9__gnu_cxx12_Lock_policyE2EE31_M_enable_shared_from_this_withIS3_S3_EENSt9enable_ifIXntsr15__has_esft_baseIT0_EE5valueEvE4typeEPT_ = comdat any

$_ZNSt14__shared_countILN9__gnu_cxx12_Lock_policyE2EEC2IPN2cl4sycl6detail21LocalAccessorImplHostEEET_ = comdat any

$_ZNSt15_Sp_counted_ptrIPN2cl4sycl6detail21LocalAccessorImplHostELN9__gnu_cxx12_Lock_policyE2EEC2ES4_ = comdat any

$_ZN2cl4sycl6detail21LocalAccessorImplHostD2Ev = comdat any

$_ZNSt15_Sp_counted_ptrIPN2cl4sycl6detail21LocalAccessorImplHostELN9__gnu_cxx12_Lock_policyE2EED2Ev = comdat any

$_ZNSt15_Sp_counted_ptrIPN2cl4sycl6detail21LocalAccessorImplHostELN9__gnu_cxx12_Lock_policyE2EED0Ev = comdat any

$_ZNSt15_Sp_counted_ptrIPN2cl4sycl6detail21LocalAccessorImplHostELN9__gnu_cxx12_Lock_policyE2EE10_M_disposeEv = comdat any

$_ZNSt15_Sp_counted_ptrIPN2cl4sycl6detail21LocalAccessorImplHostELN9__gnu_cxx12_Lock_policyE2EE10_M_destroyEv = comdat any

$_ZNSt15_Sp_counted_ptrIPN2cl4sycl6detail21LocalAccessorImplHostELN9__gnu_cxx12_Lock_policyE2EE14_M_get_deleterERKSt9type_info = comdat any

$_ZNSt6vectorIcSaIcEED2Ev = comdat any

$_ZSt8_DestroyIPccEvT_S1_RSaIT0_E = comdat any

$_ZSt8_DestroyIPcEvT_S1_ = comdat any

$_ZNSt12_Destroy_auxILb1EE9__destroyIPcEEvT_S3_ = comdat any

$_ZNSt12__shared_ptrIN2cl4sycl6detail21LocalAccessorImplHostELN9__gnu_cxx12_Lock_policyE2EEaSEOS6_ = comdat any

$_ZSt4moveIRSt10shared_ptrIN2cl4sycl6detail21LocalAccessorImplHostEEEONSt16remove_referenceIT_E4typeEOS8_ = comdat any

$_ZSt4moveIRSt12__shared_ptrIN2cl4sycl6detail21LocalAccessorImplHostELN9__gnu_cxx12_Lock_policyE2EEEONSt16remove_referenceIT_E4typeEOSA_ = comdat any

$_ZNSt12__shared_ptrIN2cl4sycl6detail21LocalAccessorImplHostELN9__gnu_cxx12_Lock_policyE2EEC2EOS6_ = comdat any

$_ZNSt12__shared_ptrIN2cl4sycl6detail21LocalAccessorImplHostELN9__gnu_cxx12_Lock_policyE2EE4swapERS6_ = comdat any

$_ZNSt12__shared_ptrIN2cl4sycl6detail21LocalAccessorImplHostELN9__gnu_cxx12_Lock_policyE2EED2Ev = comdat any

$_ZSt4swapIPN2cl4sycl6detail21LocalAccessorImplHostEENSt9enable_ifIXsr6__and_ISt6__not_ISt15__is_tuple_likeIT_EESt21is_move_constructibleIS8_ESt18is_move_assignableIS8_EEE5valueEvE4typeERS8_SH_ = comdat any

$_ZSt4moveIRPN2cl4sycl6detail21LocalAccessorImplHostEEONSt16remove_referenceIT_E4typeEOS7_ = comdat any

$_ZN2cl4sycl7handler22throwIfActionIsCreatedEv = comdat any

$_ZNSt7__cxx114stoiERKNS_12basic_stringIcSt11char_traitsIcESaIcEEEPmi = comdat any

$_ZNKSt9type_info4nameEv = comdat any

$_ZN2cl4sycl6detail10KernelInfoI2mmE13callsThisItemEv = comdat any

$_ZN2cl4sycl5rangeILi1EE14set_range_dim0Em = comdat any

$_ZN2cl4sycl6detail15checkValueRangeILi1ENS0_5rangeILi1EEEEENSt9enable_ifIXoosr3std7is_sameIT0_NS3_IXT_EEEEE5valuesr3std7is_sameIS6_NS0_2idIXT_EEEEE5valueEvE4typeERKS6_ = comdat any

$_ZN2cl4sycl6detail8NDRDescT3setILi1EEEvNS0_5rangeIXT_EEE = comdat any

$_ZSt4moveIRN2cl4sycl5rangeILi1EEEEONSt16remove_referenceIT_E4typeEOS6_ = comdat any

$_ZN2cl4sycl7handler7setTypeENS0_6detail2CG6CGTYPEE = comdat any

$_ZN2cl4sycl7handler7getTypeEv = comdat any

$_ZN2cl4sycl13runtime_errorC2EPKci = comdat any

$_ZN2cl4sycl6detail20getUnversionedCGTypeEj = comdat any

$_ZN9__gnu_cxx6__stoaIlicJiEEET0_PFT_PKT1_PPS3_DpT2_EPKcS5_PmS9_ = comdat any

$_ZZN9__gnu_cxx6__stoaIlicJiEEET0_PFT_PKT1_PPS3_DpT2_EPKcS5_PmS9_EN11_Save_errnoC2Ev = comdat any

$_ZZN9__gnu_cxx6__stoaIlicJiEEET0_PFT_PKT1_PPS3_DpT2_EPKcS5_PmS9_EN10_Range_chk6_S_chkElSt17integral_constantIbLb1EE = comdat any

$_ZZN9__gnu_cxx6__stoaIlicJiEEET0_PFT_PKT1_PPS3_DpT2_EPKcS5_PmS9_EN11_Save_errnoD2Ev = comdat any

$_ZN2cl4sycl6detail19checkValueRangeImplINS0_5rangeILi1EEEmEENSt9enable_ifIXoosr3std7is_sameIT0_mEE5valuesr3std7is_sameIS6_yEE5valueEvE4typeES6_ = comdat any

$_ZNK2cl4sycl6detail5arrayILi1EEixEi = comdat any

$_ZN2cl4sycl6detail19checkValueRangeImplINS0_5rangeILi1EEEyEENSt9enable_ifIXoosr3std7is_sameIT0_mEE5valuesr3std7is_sameIS6_yEE5valueEvE4typeES6_ = comdat any

$_ZN2cl4sycl6detail8NDRDescT18setNDRangeLeftoverEi = comdat any

$_ZN2cl4sycl6detail18getVersionedCGTypeEjh = comdat any

$_ZNSt10unique_ptrIN2cl4sycl6detail14HostKernelBaseESt14default_deleteIS3_EE5resetEPS3_ = comdat any

$_ZNSt6vectorIN2cl4sycl6detail7ArgDescESaIS3_EE5clearEv = comdat any

$_ZNKSt10unique_ptrIN2cl4sycl6detail14HostKernelBaseESt14default_deleteIS3_EEptEv = comdat any

$_ZN2cl4sycl6detail10KernelInfoI2mmE12getNumParamsEv = comdat any

$_ZN2cl4sycl6detail10KernelInfoI2mmE12getParamDescEj = comdat any

$_ZN2cl4sycl6detail10KernelInfoI2mmE7isESIMDEv = comdat any

$_ZN2cl4sycl6detail10KernelInfoI2mmE7getNameEv = comdat any

$_ZSt4swapIPN2cl4sycl6detail14HostKernelBaseEENSt9enable_ifIXsr6__and_ISt6__not_ISt15__is_tuple_likeIT_EESt21is_move_constructibleIS8_ESt18is_move_assignableIS8_EEE5valueEvE4typeERS8_SH_ = comdat any

$_ZNSt15__uniq_ptr_implIN2cl4sycl6detail14HostKernelBaseESt14default_deleteIS3_EE6_M_ptrEv = comdat any

$_ZNSt10unique_ptrIN2cl4sycl6detail14HostKernelBaseESt14default_deleteIS3_EE11get_deleterEv = comdat any

$_ZNKSt14default_deleteIN2cl4sycl6detail14HostKernelBaseEEclEPS3_ = comdat any

$_ZSt4moveIRPN2cl4sycl6detail14HostKernelBaseEEONSt16remove_referenceIT_E4typeEOS7_ = comdat any

$_ZSt3getILm0EJPN2cl4sycl6detail14HostKernelBaseESt14default_deleteIS3_EEERNSt13tuple_elementIXT_ESt5tupleIJDpT0_EEE4typeERSB_ = comdat any

$_ZSt12__get_helperILm0EPN2cl4sycl6detail14HostKernelBaseEJSt14default_deleteIS3_EEERT0_RSt11_Tuple_implIXT_EJS7_DpT1_EE = comdat any

$_ZNSt11_Tuple_implILm0EJPN2cl4sycl6detail14HostKernelBaseESt14default_deleteIS3_EEE7_M_headERS7_ = comdat any

$_ZNSt10_Head_baseILm0EPN2cl4sycl6detail14HostKernelBaseELb0EE7_M_headERS5_ = comdat any

$_ZNSt15__uniq_ptr_implIN2cl4sycl6detail14HostKernelBaseESt14default_deleteIS3_EE10_M_deleterEv = comdat any

$_ZSt3getILm1EJPN2cl4sycl6detail14HostKernelBaseESt14default_deleteIS3_EEERNSt13tuple_elementIXT_ESt5tupleIJDpT0_EEE4typeERSB_ = comdat any

$_ZSt12__get_helperILm1ESt14default_deleteIN2cl4sycl6detail14HostKernelBaseEEJEERT0_RSt11_Tuple_implIXT_EJS6_DpT1_EE = comdat any

$_ZNSt11_Tuple_implILm1EJSt14default_deleteIN2cl4sycl6detail14HostKernelBaseEEEE7_M_headERS6_ = comdat any

$_ZNSt10_Head_baseILm1ESt14default_deleteIN2cl4sycl6detail14HostKernelBaseEELb1EE7_M_headERS6_ = comdat any

$_ZN2cl4sycl6detail14HostKernelBaseC2Ev = comdat any

$_ZN2cl4sycl6detail14HostKernelBaseD2Ev = comdat any

$_ZN2cl4sycl6detail14HostKernelBaseD0Ev = comdat any

$_ZNK2cl4sycl6detail5arrayILi3EEixEi = comdat any

$_ZN2cl4sycl6detail8NDRDescT3setEiNS0_8nd_rangeILi3EEE = comdat any

$_ZNK2cl4sycl5rangeILi3EEmlERKS2_ = comdat any

$_ZN2cl4sycl2idILi3EEC2Ev = comdat any

$_ZN2cl4sycl8nd_rangeILi3EEC2ENS0_5rangeILi3EEES4_NS0_2idILi3EEE = comdat any

$_ZNK2cl4sycl8nd_rangeILi3EE16get_global_rangeEv = comdat any

$_ZNK2cl4sycl8nd_rangeILi3EE15get_local_rangeEv = comdat any

$_ZNK2cl4sycl8nd_rangeILi3EE10get_offsetEv = comdat any

$_ZN2cl4sycl6detail5arrayILi3EEC2ILi3ELm0EEEv = comdat any

$_ZN2cl4sycl6detail14InitializedValILi1ENS0_5rangeEE3getILi0EEENS3_ILi1EEEv = comdat any

$_ZN2cl4sycl2idILi1EEC2Ev = comdat any

$_ZN2cl4sycl6detail14InitializedValILi1ENS0_5rangeEE3getILi1EEENS3_ILi1EEEv = comdat any

$_ZN2cl4sycl6detail14InitializedValILi1ENS0_2idEE3getILi0EEENS3_ILi1EEEv = comdat any

$_ZN2cl4sycl6detail7Builder10createItemILi1ELb1EEENSt9enable_ifIXT0_ENS0_4itemIXT_EXT0_EEEE4typeERKNS0_5rangeIXT_EEERKNS0_2idIXT_EEESG_ = comdat any

$_ZN2cl4sycl4itemILi1ELb1EEC2ILb1EEERNSt9enable_ifIXT_EKNS0_5rangeILi1EEEE4typeERKNS0_2idILi1EEESE_ = comdat any

$_ZNK2cl4sycl8accessorIfLi1ELNS0_6access4modeE1026ELNS2_6targetE2016ELNS2_11placeholderE0ENS0_6ONEAPI22accessor_property_listIJEEEE11get_pointerEv = comdat any

$_ZNK2cl4sycl9multi_ptrIfLNS0_6access13address_spaceE3EE3getEv = comdat any

$_ZNK2cl4sycl8accessorIfLi1ELNS0_6access4modeE1024ELNS2_6targetE2014ELNS2_11placeholderE0ENS0_6ONEAPI22accessor_property_listIJEEEEixILi1EEENSt9enable_ifIXaagtT_Li0EL_ZNS0_6detail15accessor_commonIfLi1ELS3_1024ELS4_2014ELS5_0ES8_E16IsAccessReadOnlyEEERKfE4typeENS0_2idILi1EEE = comdat any

$_ZNK2cl4sycl8accessorIfLi1ELNS0_6access4modeE1026ELNS2_6targetE2016ELNS2_11placeholderE0ENS0_6ONEAPI22accessor_property_listIJEEEEixILi1EvEERfm = comdat any

$_ZNK2cl4sycl8accessorIfLi1ELNS0_6access4modeE1025ELNS2_6targetE2014ELNS2_11placeholderE0ENS0_6ONEAPI22accessor_property_listIJEEEEixILi1EvEERfNS0_2idILi1EEE = comdat any

$_ZNK2cl4sycl8accessorIfLi1ELNS0_6access4modeE1026ELNS2_6targetE2016ELNS2_11placeholderE0ENS0_6ONEAPI22accessor_property_listIJEEEE15getQualifiedPtrEv = comdat any

$_ZN2cl4sycl9multi_ptrIfLNS0_6access13address_spaceE3EEC2EPf = comdat any

$_ZNK2cl4sycl6detail21LocalAccessorBaseHost6getPtrEv = comdat any

$_ZNKSt19__shared_ptr_accessIN2cl4sycl6detail21LocalAccessorImplHostELN9__gnu_cxx12_Lock_policyE2ELb0ELb0EEptEv = comdat any

$_ZNSt6vectorIcSaIcEE4dataEv = comdat any

$_ZNKSt19__shared_ptr_accessIN2cl4sycl6detail21LocalAccessorImplHostELN9__gnu_cxx12_Lock_policyE2ELb0ELb0EE6_M_getEv = comdat any

$_ZNKSt12__shared_ptrIN2cl4sycl6detail21LocalAccessorImplHostELN9__gnu_cxx12_Lock_policyE2EE3getEv = comdat any

$_ZNKSt6vectorIcSaIcEE11_M_data_ptrIcEEPT_S4_ = comdat any

$_ZNK2cl4sycl8accessorIfLi1ELNS0_6access4modeE1024ELNS2_6targetE2014ELNS2_11placeholderE0ENS0_6ONEAPI22accessor_property_listIJEEEE14getLinearIndexILi1EEEmNS0_2idIXT_EEE = comdat any

$_ZNK2cl4sycl8accessorIfLi1ELNS0_6access4modeE1024ELNS2_6targetE2014ELNS2_11placeholderE0ENS0_6ONEAPI22accessor_property_listIJEEEE15getQualifiedPtrEv = comdat any

$_ZNK2cl4sycl6detail16AccessorBaseHost14getMemoryRangeEv = comdat any

$_ZNK2cl4sycl6detail16AccessorBaseHost9getOffsetEv = comdat any

$_ZNKSt19__shared_ptr_accessIN2cl4sycl6detail16AccessorImplHostELN9__gnu_cxx12_Lock_policyE2ELb0ELb0EEptEv = comdat any

$_ZNKSt19__shared_ptr_accessIN2cl4sycl6detail16AccessorImplHostELN9__gnu_cxx12_Lock_policyE2ELb0ELb0EE6_M_getEv = comdat any

$_ZNKSt12__shared_ptrIN2cl4sycl6detail16AccessorImplHostELN9__gnu_cxx12_Lock_policyE2EE3getEv = comdat any

$_ZNK2cl4sycl6detail16AccessorBaseHost6getPtrEv = comdat any

$_ZNK2cl4sycl8accessorIfLi1ELNS0_6access4modeE1025ELNS2_6targetE2014ELNS2_11placeholderE0ENS0_6ONEAPI22accessor_property_listIJEEEE14getLinearIndexILi1EEEmNS0_2idIXT_EEE = comdat any

$_ZNK2cl4sycl8accessorIfLi1ELNS0_6access4modeE1025ELNS2_6targetE2014ELNS2_11placeholderE0ENS0_6ONEAPI22accessor_property_listIJEEEE15getQualifiedPtrEv = comdat any

$_ZNSt6vectorIN2cl4sycl6detail7ArgDescESaIS3_EE15_M_erase_at_endEPS3_ = comdat any

$_ZSt8_DestroyIPN2cl4sycl6detail7ArgDescES3_EvT_S5_RSaIT0_E = comdat any

$_ZNSt12_Vector_baseIN2cl4sycl6detail7ArgDescESaIS3_EE19_M_get_Tp_allocatorEv = comdat any

$_ZSt8_DestroyIPN2cl4sycl6detail7ArgDescEEvT_S5_ = comdat any

$_ZNSt12_Destroy_auxILb1EE9__destroyIPN2cl4sycl6detail7ArgDescEEEvT_S7_ = comdat any

$_ZNKSt10unique_ptrIN2cl4sycl6detail14HostKernelBaseESt14default_deleteIS3_EE3getEv = comdat any

$_ZNKSt15__uniq_ptr_implIN2cl4sycl6detail14HostKernelBaseESt14default_deleteIS3_EE6_M_ptrEv = comdat any

$_ZSt3getILm0EJPN2cl4sycl6detail14HostKernelBaseESt14default_deleteIS3_EEERKNSt13tuple_elementIXT_ESt5tupleIJDpT0_EEE4typeERKSB_ = comdat any

$_ZSt12__get_helperILm0EPN2cl4sycl6detail14HostKernelBaseEJSt14default_deleteIS3_EEERKT0_RKSt11_Tuple_implIXT_EJS7_DpT1_EE = comdat any

$_ZNSt11_Tuple_implILm0EJPN2cl4sycl6detail14HostKernelBaseESt14default_deleteIS3_EEE7_M_headERKS7_ = comdat any

$_ZNSt10_Head_baseILm0EPN2cl4sycl6detail14HostKernelBaseELb0EE7_M_headERKS5_ = comdat any

$_ZN2cl4sycl8accessorIfLi1ELNS0_6access4modeE1026ELNS2_6targetE2016ELNS2_11placeholderE0ENS0_6ONEAPI22accessor_property_listIJEEEEC2EOS9_ = comdat any

$_ZN2cl4sycl8accessorIfLi1ELNS0_6access4modeE1024ELNS2_6targetE2014ELNS2_11placeholderE0ENS0_6ONEAPI22accessor_property_listIJEEEEC2EOS9_ = comdat any

$_ZN2cl4sycl8accessorIfLi1ELNS0_6access4modeE1025ELNS2_6targetE2014ELNS2_11placeholderE0ENS0_6ONEAPI22accessor_property_listIJEEEEC2EOS9_ = comdat any

$_ZN2cl4sycl6detail21LocalAccessorBaseHostC2EOS2_ = comdat any

$_ZNSt10shared_ptrIN2cl4sycl6detail21LocalAccessorImplHostEEC2EOS4_ = comdat any

$_ZN2cl4sycl6detail16AccessorBaseHostC2EOS2_ = comdat any

$_ZNSt10shared_ptrIN2cl4sycl6detail16AccessorImplHostEEC2EOS4_ = comdat any

$_ZN2cl4sycl6detail21LocalAccessorBaseHostC2ERKS2_ = comdat any

$_ZNSt10shared_ptrIN2cl4sycl6detail21LocalAccessorImplHostEEC2ERKS4_ = comdat any

$_ZNSt12__shared_ptrIN2cl4sycl6detail21LocalAccessorImplHostELN9__gnu_cxx12_Lock_policyE2EEC2ERKS6_ = comdat any

$_ZN2cl4sycl6detail16AccessorBaseHostC2ERKS2_ = comdat any

$_ZNSt10shared_ptrIN2cl4sycl6detail16AccessorImplHostEEC2ERKS4_ = comdat any

$_ZNSt12__shared_ptrIN2cl4sycl6detail16AccessorImplHostELN9__gnu_cxx12_Lock_policyE2EEC2ERKS6_ = comdat any

$_ZN2cl4sycl6detail21LocalAccessorBaseHostD2Ev = comdat any

$_ZN2cl4sycl13host_accessorIfLi1ELNS0_6access4modeE1024EEC2IfLi1ENS0_6detail17aligned_allocatorIcEEvEERNS0_6bufferIT_XT0_ET1_NSt9enable_ifIXaagtT0_Li0EleT0_Li3EEvE4typeEEERKNS0_13property_listE = comdat any

$_ZN2cl4sycl8accessorIfLi1ELNS0_6access4modeE1024ELNS2_6targetE2018ELNS2_11placeholderE0ENS0_6ONEAPI22accessor_property_listIJEEEEC2IfLi1ENS0_6detail17aligned_allocatorIcEEvEERNS0_6bufferIT_XT0_ET1_NSt9enable_ifIXaagtT0_Li0EleT0_Li3EEvE4typeEEERKNS0_13property_listE = comdat any

$_ZN2cl4sycl8accessorIfLi1ELNS0_6access4modeE1024ELNS2_6targetE2018ELNS2_11placeholderE0ENS0_6ONEAPI22accessor_property_listIJEEEE15getAdjustedModeERKS8_ = comdat any

$_ZN2cl4sycl8accessorIfLi1ELNS0_6access4modeE1024ELNS2_6targetE2018ELNS2_11placeholderE0ENS0_6ONEAPI22accessor_property_listIJEEEE29checkDeviceAccessorBufferSizeEm = comdat any

$_ZNK2cl4sycl8accessorIfLi1ELNS0_6access4modeE1024ELNS2_6targetE2018ELNS2_11placeholderE0ENS0_6ONEAPI22accessor_property_listIJEEEE14getLinearIndexILi1EEEmNS0_2idIXT_EEE = comdat any

$_ZNK2cl4sycl8accessorIfLi1ELNS0_6access4modeE1024ELNS2_6targetE2018ELNS2_11placeholderE0ENS0_6ONEAPI22accessor_property_listIJEEEE15getQualifiedPtrEv = comdat any

$_ZN2cl4sycl9read_onlyE = comdat any

$_ZTVSt23_Sp_counted_ptr_inplaceIN2cl4sycl6detail11buffer_implESaIS3_ELN9__gnu_cxx12_Lock_policyE2EE = comdat any

$_ZTSSt23_Sp_counted_ptr_inplaceIN2cl4sycl6detail11buffer_implESaIS3_ELN9__gnu_cxx12_Lock_policyE2EE = comdat any

$_ZTSSt16_Sp_counted_baseILN9__gnu_cxx12_Lock_policyE2EE = comdat any

$_ZTSSt11_Mutex_baseILN9__gnu_cxx12_Lock_policyE2EE = comdat any

$_ZTISt11_Mutex_baseILN9__gnu_cxx12_Lock_policyE2EE = comdat any

$_ZTISt16_Sp_counted_baseILN9__gnu_cxx12_Lock_policyE2EE = comdat any

$_ZTISt23_Sp_counted_ptr_inplaceIN2cl4sycl6detail11buffer_implESaIS3_ELN9__gnu_cxx12_Lock_policyE2EE = comdat any

$_ZTVSt16_Sp_counted_baseILN9__gnu_cxx12_Lock_policyE2EE = comdat any

$_ZTSN2cl4sycl20invalid_object_errorE = comdat any

$_ZTSN2cl4sycl12device_errorE = comdat any

$_ZTIN2cl4sycl12device_errorE = comdat any

$_ZTIN2cl4sycl20invalid_object_errorE = comdat any

$_ZTVN2cl4sycl6detail11SYCLMemObjIE = comdat any

$_ZTSN2cl4sycl6detail11SYCLMemObjIE = comdat any

$_ZTIN2cl4sycl6detail11SYCLMemObjIE = comdat any

$_ZTVN2cl4sycl20invalid_object_errorE = comdat any

$_ZTVN2cl4sycl12device_errorE = comdat any

$_ZTSZN2cl4sycl6detail11SYCLMemObjT14set_final_dataIPcEENSt9enable_ifIXsr3std10is_pointerIT_EE5valueEvE4typeES6_EUlvE_ = comdat any

$_ZTIZN2cl4sycl6detail11SYCLMemObjT14set_final_dataIPcEENSt9enable_ifIXsr3std10is_pointerIT_EE5valueEvE4typeES6_EUlvE_ = comdat any

$_ZTSSt19_Sp_make_shared_tag = comdat any

$_ZTISt19_Sp_make_shared_tag = comdat any

$_ZZNSt19_Sp_make_shared_tag5_S_tiEvE5__tag = comdat any

$_ZTSN2cl4sycl23invalid_parameter_errorE = comdat any

$_ZTSN2cl4sycl13runtime_errorE = comdat any

$_ZTIN2cl4sycl13runtime_errorE = comdat any

$_ZTIN2cl4sycl23invalid_parameter_errorE = comdat any

$_ZTVN2cl4sycl23invalid_parameter_errorE = comdat any

$_ZTVN2cl4sycl13runtime_errorE = comdat any

$_ZTVN2cl4sycl6detail25SYCLMemObjAllocatorHolderINS1_17aligned_allocatorIcEEEE = comdat any

$_ZTSN2cl4sycl6detail25SYCLMemObjAllocatorHolderINS1_17aligned_allocatorIcEEEE = comdat any

$_ZTSN2cl4sycl6detail19SYCLMemObjAllocatorE = comdat any

$_ZTIN2cl4sycl6detail19SYCLMemObjAllocatorE = comdat any

$_ZTIN2cl4sycl6detail25SYCLMemObjAllocatorHolderINS1_17aligned_allocatorIcEEEE = comdat any

$_ZTVN2cl4sycl6detail19SYCLMemObjAllocatorE = comdat any

$_ZN2cl4sycl10write_onlyE = comdat any

$_ZTVSt15_Sp_counted_ptrIPN2cl4sycl6detail16AccessorImplHostELN9__gnu_cxx12_Lock_policyE2EE = comdat any

$_ZTSSt15_Sp_counted_ptrIPN2cl4sycl6detail16AccessorImplHostELN9__gnu_cxx12_Lock_policyE2EE = comdat any

$_ZTISt15_Sp_counted_ptrIPN2cl4sycl6detail16AccessorImplHostELN9__gnu_cxx12_Lock_policyE2EE = comdat any

$_ZTVSt15_Sp_counted_ptrIPN2cl4sycl6detail21LocalAccessorImplHostELN9__gnu_cxx12_Lock_policyE2EE = comdat any

$_ZTSSt15_Sp_counted_ptrIPN2cl4sycl6detail21LocalAccessorImplHostELN9__gnu_cxx12_Lock_policyE2EE = comdat any

$_ZTISt15_Sp_counted_ptrIPN2cl4sycl6detail21LocalAccessorImplHostELN9__gnu_cxx12_Lock_policyE2EE = comdat any

$_ZZN2cl4sycl6detail19checkValueRangeImplINS0_5rangeILi1EEEmEENSt9enable_ifIXoosr3std7is_sameIT0_mEE5valuesr3std7is_sameIS6_yEE5valueEvE4typeES6_E5Limit = comdat any

$_ZZN2cl4sycl6detail19checkValueRangeImplINS0_5rangeILi1EEEyEENSt9enable_ifIXoosr3std7is_sameIT0_mEE5valuesr3std7is_sameIS6_yEE5valueEvE4typeES6_E5Limit = comdat any

$_ZTSN2cl4sycl6detail14HostKernelBaseE = comdat any

$_ZTIN2cl4sycl6detail14HostKernelBaseE = comdat any

$_ZTVN2cl4sycl6detail14HostKernelBaseE = comdat any

@_ZStL8__ioinit = internal global %"class.std::ios_base::Init" zeroinitializer, align 1
@__dso_handle = external hidden global i8
@.str = private unnamed_addr constant [11 x i8] c"tensor.cpp\00", align 1
@.str.1 = private unnamed_addr constant [5 x i8] c"main\00", align 1
@_ZN2cl4sycl9read_onlyE = linkonce_odr dso_local constant %"struct.cl::sycl::mode_tag_t" zeroinitializer, comdat, align 1
@_ZSt4cout = external dso_local global %"class.std::basic_ostream", align 8
@.str.2 = private unnamed_addr constant [9 x i8] c"Result: \00", align 1
@.str.3 = private unnamed_addr constant [5 x i8] c" .. \00", align 1
@.str.4 = private unnamed_addr constant [7 x i8] c"Time: \00", align 1
@_ZTVN2cl4sycl12gpu_selectorE = external dso_local unnamed_addr constant { [6 x i8*] }, align 8
@_ZTVN2cl4sycl15device_selectorE = external dso_local unnamed_addr constant { [6 x i8*] }, align 8
@_ZZL18__gthread_active_pvE20__gthread_active_ptr = internal constant i8* bitcast (i32 (i32*, void (i8*)*)* @__pthread_key_create to i8*), align 8
@_ZTVSt23_Sp_counted_ptr_inplaceIN2cl4sycl6detail11buffer_implESaIS3_ELN9__gnu_cxx12_Lock_policyE2EE = linkonce_odr dso_local unnamed_addr constant { [7 x i8*] } { [7 x i8*] [i8* null, i8* bitcast ({ i8*, i8*, i8* }* @_ZTISt23_Sp_counted_ptr_inplaceIN2cl4sycl6detail11buffer_implESaIS3_ELN9__gnu_cxx12_Lock_policyE2EE to i8*), i8* bitcast (void (%"class.std::_Sp_counted_ptr_inplace"*)* @_ZNSt23_Sp_counted_ptr_inplaceIN2cl4sycl6detail11buffer_implESaIS3_ELN9__gnu_cxx12_Lock_policyE2EED2Ev to i8*), i8* bitcast (void (%"class.std::_Sp_counted_ptr_inplace"*)* @_ZNSt23_Sp_counted_ptr_inplaceIN2cl4sycl6detail11buffer_implESaIS3_ELN9__gnu_cxx12_Lock_policyE2EED0Ev to i8*), i8* bitcast (void (%"class.std::_Sp_counted_ptr_inplace"*)* @_ZNSt23_Sp_counted_ptr_inplaceIN2cl4sycl6detail11buffer_implESaIS3_ELN9__gnu_cxx12_Lock_policyE2EE10_M_disposeEv to i8*), i8* bitcast (void (%"class.std::_Sp_counted_ptr_inplace"*)* @_ZNSt23_Sp_counted_ptr_inplaceIN2cl4sycl6detail11buffer_implESaIS3_ELN9__gnu_cxx12_Lock_policyE2EE10_M_destroyEv to i8*), i8* bitcast (i8* (%"class.std::_Sp_counted_ptr_inplace"*, %"class.std::type_info"*)* @_ZNSt23_Sp_counted_ptr_inplaceIN2cl4sycl6detail11buffer_implESaIS3_ELN9__gnu_cxx12_Lock_policyE2EE14_M_get_deleterERKSt9type_info to i8*)] }, comdat, align 8
@_ZTVN10__cxxabiv120__si_class_type_infoE = external dso_local global i8*
@_ZTSSt23_Sp_counted_ptr_inplaceIN2cl4sycl6detail11buffer_implESaIS3_ELN9__gnu_cxx12_Lock_policyE2EE = linkonce_odr dso_local constant [96 x i8] c"St23_Sp_counted_ptr_inplaceIN2cl4sycl6detail11buffer_implESaIS3_ELN9__gnu_cxx12_Lock_policyE2EE\00", comdat, align 1
@_ZTSSt16_Sp_counted_baseILN9__gnu_cxx12_Lock_policyE2EE = linkonce_odr dso_local constant [52 x i8] c"St16_Sp_counted_baseILN9__gnu_cxx12_Lock_policyE2EE\00", comdat, align 1
@_ZTVN10__cxxabiv117__class_type_infoE = external dso_local global i8*
@_ZTSSt11_Mutex_baseILN9__gnu_cxx12_Lock_policyE2EE = linkonce_odr dso_local constant [47 x i8] c"St11_Mutex_baseILN9__gnu_cxx12_Lock_policyE2EE\00", comdat, align 1
@_ZTISt11_Mutex_baseILN9__gnu_cxx12_Lock_policyE2EE = linkonce_odr dso_local constant { i8*, i8* } { i8* bitcast (i8** getelementptr inbounds (i8*, i8** @_ZTVN10__cxxabiv117__class_type_infoE, i64 2) to i8*), i8* getelementptr inbounds ([47 x i8], [47 x i8]* @_ZTSSt11_Mutex_baseILN9__gnu_cxx12_Lock_policyE2EE, i32 0, i32 0) }, comdat, align 8
@_ZTISt16_Sp_counted_baseILN9__gnu_cxx12_Lock_policyE2EE = linkonce_odr dso_local constant { i8*, i8*, i8* } { i8* bitcast (i8** getelementptr inbounds (i8*, i8** @_ZTVN10__cxxabiv120__si_class_type_infoE, i64 2) to i8*), i8* getelementptr inbounds ([52 x i8], [52 x i8]* @_ZTSSt16_Sp_counted_baseILN9__gnu_cxx12_Lock_policyE2EE, i32 0, i32 0), i8* bitcast ({ i8*, i8* }* @_ZTISt11_Mutex_baseILN9__gnu_cxx12_Lock_policyE2EE to i8*) }, comdat, align 8
@_ZTISt23_Sp_counted_ptr_inplaceIN2cl4sycl6detail11buffer_implESaIS3_ELN9__gnu_cxx12_Lock_policyE2EE = linkonce_odr dso_local constant { i8*, i8*, i8* } { i8* bitcast (i8** getelementptr inbounds (i8*, i8** @_ZTVN10__cxxabiv120__si_class_type_infoE, i64 2) to i8*), i8* getelementptr inbounds ([96 x i8], [96 x i8]* @_ZTSSt23_Sp_counted_ptr_inplaceIN2cl4sycl6detail11buffer_implESaIS3_ELN9__gnu_cxx12_Lock_policyE2EE, i32 0, i32 0), i8* bitcast ({ i8*, i8*, i8* }* @_ZTISt16_Sp_counted_baseILN9__gnu_cxx12_Lock_policyE2EE to i8*) }, comdat, align 8
@_ZTVSt16_Sp_counted_baseILN9__gnu_cxx12_Lock_policyE2EE = linkonce_odr dso_local unnamed_addr constant { [7 x i8*] } { [7 x i8*] [i8* null, i8* bitcast ({ i8*, i8*, i8* }* @_ZTISt16_Sp_counted_baseILN9__gnu_cxx12_Lock_policyE2EE to i8*), i8* bitcast (void (%"class.std::_Sp_counted_base"*)* @_ZNSt16_Sp_counted_baseILN9__gnu_cxx12_Lock_policyE2EED2Ev to i8*), i8* bitcast (void (%"class.std::_Sp_counted_base"*)* @_ZNSt16_Sp_counted_baseILN9__gnu_cxx12_Lock_policyE2EED0Ev to i8*), i8* bitcast (void ()* @__cxa_pure_virtual to i8*), i8* bitcast (void (%"class.std::_Sp_counted_base"*)* @_ZNSt16_Sp_counted_baseILN9__gnu_cxx12_Lock_policyE2EE10_M_destroyEv to i8*), i8* bitcast (void ()* @__cxa_pure_virtual to i8*)] }, comdat, align 8
@_ZTVN2cl4sycl6detail11buffer_implE = external dso_local unnamed_addr constant { [11 x i8*] }, align 8
@.str.5 = private unnamed_addr constant [60 x i8] c"The use_pinned_host_memory cannot be used with host pointer\00", align 1
@_ZTSN2cl4sycl20invalid_object_errorE = linkonce_odr dso_local constant [33 x i8] c"N2cl4sycl20invalid_object_errorE\00", comdat, align 1
@_ZTSN2cl4sycl12device_errorE = linkonce_odr dso_local constant [25 x i8] c"N2cl4sycl12device_errorE\00", comdat, align 1
@_ZTIN2cl4sycl9exceptionE = external dso_local constant i8*
@_ZTIN2cl4sycl12device_errorE = linkonce_odr dso_local constant { i8*, i8*, i8* } { i8* bitcast (i8** getelementptr inbounds (i8*, i8** @_ZTVN10__cxxabiv120__si_class_type_infoE, i64 2) to i8*), i8* getelementptr inbounds ([25 x i8], [25 x i8]* @_ZTSN2cl4sycl12device_errorE, i32 0, i32 0), i8* bitcast (i8** @_ZTIN2cl4sycl9exceptionE to i8*) }, comdat, align 8
@_ZTIN2cl4sycl20invalid_object_errorE = linkonce_odr dso_local constant { i8*, i8*, i8* } { i8* bitcast (i8** getelementptr inbounds (i8*, i8** @_ZTVN10__cxxabiv120__si_class_type_infoE, i64 2) to i8*), i8* getelementptr inbounds ([33 x i8], [33 x i8]* @_ZTSN2cl4sycl20invalid_object_errorE, i32 0, i32 0), i8* bitcast ({ i8*, i8*, i8* }* @_ZTIN2cl4sycl12device_errorE to i8*) }, comdat, align 8
@_ZTVN2cl4sycl6detail11SYCLMemObjTE = external dso_local unnamed_addr constant { [11 x i8*] }, align 8
@_ZTVN2cl4sycl6detail11SYCLMemObjIE = linkonce_odr dso_local unnamed_addr constant { [11 x i8*] } { [11 x i8*] [i8* null, i8* bitcast ({ i8*, i8* }* @_ZTIN2cl4sycl6detail11SYCLMemObjIE to i8*), i8* bitcast (void (%"class.cl::sycl::detail::SYCLMemObjI"*)* @_ZN2cl4sycl6detail11SYCLMemObjID2Ev to i8*), i8* bitcast (void (%"class.cl::sycl::detail::SYCLMemObjI"*)* @_ZN2cl4sycl6detail11SYCLMemObjID0Ev to i8*), i8* bitcast (void ()* @__cxa_pure_virtual to i8*), i8* bitcast (void ()* @__cxa_pure_virtual to i8*), i8* bitcast (void ()* @__cxa_pure_virtual to i8*), i8* bitcast (void ()* @__cxa_pure_virtual to i8*), i8* bitcast (void ()* @__cxa_pure_virtual to i8*), i8* bitcast (void ()* @__cxa_pure_virtual to i8*), i8* bitcast (void ()* @__cxa_pure_virtual to i8*)] }, comdat, align 8
@_ZTSN2cl4sycl6detail11SYCLMemObjIE = linkonce_odr dso_local constant [31 x i8] c"N2cl4sycl6detail11SYCLMemObjIE\00", comdat, align 1
@_ZTIN2cl4sycl6detail11SYCLMemObjIE = linkonce_odr dso_local constant { i8*, i8* } { i8* bitcast (i8** getelementptr inbounds (i8*, i8** @_ZTVN10__cxxabiv117__class_type_infoE, i64 2) to i8*), i8* getelementptr inbounds ([31 x i8], [31 x i8]* @_ZTSN2cl4sycl6detail11SYCLMemObjIE, i32 0, i32 0) }, comdat, align 8
@_ZTVN2cl4sycl20invalid_object_errorE = linkonce_odr dso_local unnamed_addr constant { [5 x i8*] } { [5 x i8*] [i8* null, i8* bitcast ({ i8*, i8*, i8* }* @_ZTIN2cl4sycl20invalid_object_errorE to i8*), i8* bitcast (void (%"class.cl::sycl::invalid_object_error"*)* @_ZN2cl4sycl20invalid_object_errorD2Ev to i8*), i8* bitcast (void (%"class.cl::sycl::invalid_object_error"*)* @_ZN2cl4sycl20invalid_object_errorD0Ev to i8*), i8* bitcast (i8* (%"class.cl::sycl::exception"*)* @_ZNK2cl4sycl9exception4whatEv to i8*)] }, comdat, align 8
@.str.6 = private unnamed_addr constant [42 x i8] c"basic_string::_M_construct null not valid\00", align 1
@_ZTVN2cl4sycl12device_errorE = linkonce_odr dso_local unnamed_addr constant { [5 x i8*] } { [5 x i8*] [i8* null, i8* bitcast ({ i8*, i8*, i8* }* @_ZTIN2cl4sycl12device_errorE to i8*), i8* bitcast (void (%"class.cl::sycl::device_error"*)* @_ZN2cl4sycl12device_errorD2Ev to i8*), i8* bitcast (void (%"class.cl::sycl::device_error"*)* @_ZN2cl4sycl12device_errorD0Ev to i8*), i8* bitcast (i8* (%"class.cl::sycl::exception"*)* @_ZNK2cl4sycl9exception4whatEv to i8*)] }, comdat, align 8
@_ZTVN2cl4sycl9exceptionE = external dso_local unnamed_addr constant { [5 x i8*] }, align 8
@.str.7 = private unnamed_addr constant [2 x i8] c" \00", align 1
@_ZTVSt9exception = external dso_local unnamed_addr constant { [5 x i8*] }, align 8
@.str.8 = private unnamed_addr constant [3 x i8] c" (\00", align 1
@.str.9 = private unnamed_addr constant [2 x i8] c")\00", align 1
@.str.10 = private unnamed_addr constant [3 x i8] c"%d\00", align 1
@_ZTSZN2cl4sycl6detail11SYCLMemObjT14set_final_dataIPcEENSt9enable_ifIXsr3std10is_pointerIT_EE5valueEvE4typeES6_EUlvE_ = linkonce_odr hidden constant [114 x i8] c"ZN2cl4sycl6detail11SYCLMemObjT14set_final_dataIPcEENSt9enable_ifIXsr3std10is_pointerIT_EE5valueEvE4typeES6_EUlvE_\00", comdat, align 1
@_ZTIZN2cl4sycl6detail11SYCLMemObjT14set_final_dataIPcEENSt9enable_ifIXsr3std10is_pointerIT_EE5valueEvE4typeES6_EUlvE_ = linkonce_odr hidden constant { i8*, i8* } { i8* bitcast (i8** getelementptr inbounds (i8*, i8** @_ZTVN10__cxxabiv117__class_type_infoE, i64 2) to i8*), i8* getelementptr inbounds ([114 x i8], [114 x i8]* @_ZTSZN2cl4sycl6detail11SYCLMemObjT14set_final_dataIPcEENSt9enable_ifIXsr3std10is_pointerIT_EE5valueEvE4typeES6_EUlvE_, i32 0, i32 0) }, comdat, align 8
@_ZTSSt19_Sp_make_shared_tag = linkonce_odr dso_local constant [24 x i8] c"St19_Sp_make_shared_tag\00", comdat, align 1
@_ZTISt19_Sp_make_shared_tag = linkonce_odr dso_local constant { i8*, i8* } { i8* bitcast (i8** getelementptr inbounds (i8*, i8** @_ZTVN10__cxxabiv117__class_type_infoE, i64 2) to i8*), i8* getelementptr inbounds ([24 x i8], [24 x i8]* @_ZTSSt19_Sp_make_shared_tag, i32 0, i32 0) }, comdat, align 8
@_ZZNSt19_Sp_make_shared_tag5_S_tiEvE5__tag = linkonce_odr dso_local constant [16 x i8] zeroinitializer, comdat, align 8
@.str.11 = private unnamed_addr constant [19 x i8] c"Index out of range\00", align 1
@_ZTSN2cl4sycl23invalid_parameter_errorE = linkonce_odr dso_local constant [36 x i8] c"N2cl4sycl23invalid_parameter_errorE\00", comdat, align 1
@_ZTSN2cl4sycl13runtime_errorE = linkonce_odr dso_local constant [26 x i8] c"N2cl4sycl13runtime_errorE\00", comdat, align 1
@_ZTIN2cl4sycl13runtime_errorE = linkonce_odr dso_local constant { i8*, i8*, i8* } { i8* bitcast (i8** getelementptr inbounds (i8*, i8** @_ZTVN10__cxxabiv120__si_class_type_infoE, i64 2) to i8*), i8* getelementptr inbounds ([26 x i8], [26 x i8]* @_ZTSN2cl4sycl13runtime_errorE, i32 0, i32 0), i8* bitcast (i8** @_ZTIN2cl4sycl9exceptionE to i8*) }, comdat, align 8
@_ZTIN2cl4sycl23invalid_parameter_errorE = linkonce_odr dso_local constant { i8*, i8*, i8* } { i8* bitcast (i8** getelementptr inbounds (i8*, i8** @_ZTVN10__cxxabiv120__si_class_type_infoE, i64 2) to i8*), i8* getelementptr inbounds ([36 x i8], [36 x i8]* @_ZTSN2cl4sycl23invalid_parameter_errorE, i32 0, i32 0), i8* bitcast ({ i8*, i8*, i8* }* @_ZTIN2cl4sycl13runtime_errorE to i8*) }, comdat, align 8
@_ZTVN2cl4sycl23invalid_parameter_errorE = linkonce_odr dso_local unnamed_addr constant { [5 x i8*] } { [5 x i8*] [i8* null, i8* bitcast ({ i8*, i8*, i8* }* @_ZTIN2cl4sycl23invalid_parameter_errorE to i8*), i8* bitcast (void (%"class.cl::sycl::invalid_parameter_error"*)* @_ZN2cl4sycl23invalid_parameter_errorD2Ev to i8*), i8* bitcast (void (%"class.cl::sycl::invalid_parameter_error"*)* @_ZN2cl4sycl23invalid_parameter_errorD0Ev to i8*), i8* bitcast (i8* (%"class.cl::sycl::exception"*)* @_ZNK2cl4sycl9exception4whatEv to i8*)] }, comdat, align 8
@_ZTVN2cl4sycl13runtime_errorE = linkonce_odr dso_local unnamed_addr constant { [5 x i8*] } { [5 x i8*] [i8* null, i8* bitcast ({ i8*, i8*, i8* }* @_ZTIN2cl4sycl13runtime_errorE to i8*), i8* bitcast (void (%"class.cl::sycl::runtime_error"*)* @_ZN2cl4sycl13runtime_errorD2Ev to i8*), i8* bitcast (void (%"class.cl::sycl::runtime_error"*)* @_ZN2cl4sycl13runtime_errorD0Ev to i8*), i8* bitcast (i8* (%"class.cl::sycl::exception"*)* @_ZNK2cl4sycl9exception4whatEv to i8*)] }, comdat, align 8
@_ZTVN2cl4sycl6detail25SYCLMemObjAllocatorHolderINS1_17aligned_allocatorIcEEEE = linkonce_odr dso_local unnamed_addr constant { [9 x i8*] } { [9 x i8*] [i8* null, i8* bitcast ({ i8*, i8*, i8* }* @_ZTIN2cl4sycl6detail25SYCLMemObjAllocatorHolderINS1_17aligned_allocatorIcEEEE to i8*), i8* bitcast (i8* (%"class.cl::sycl::detail::SYCLMemObjAllocatorHolder"*)* @_ZN2cl4sycl6detail25SYCLMemObjAllocatorHolderINS1_17aligned_allocatorIcEEE16getAllocatorImplEv to i8*), i8* bitcast (void (%"class.cl::sycl::detail::SYCLMemObjAllocatorHolder"*)* @_ZN2cl4sycl6detail25SYCLMemObjAllocatorHolderINS1_17aligned_allocatorIcEEED2Ev to i8*), i8* bitcast (void (%"class.cl::sycl::detail::SYCLMemObjAllocatorHolder"*)* @_ZN2cl4sycl6detail25SYCLMemObjAllocatorHolderINS1_17aligned_allocatorIcEEED0Ev to i8*), i8* bitcast (i8* (%"class.cl::sycl::detail::SYCLMemObjAllocatorHolder"*, i64)* @_ZN2cl4sycl6detail25SYCLMemObjAllocatorHolderINS1_17aligned_allocatorIcEEE8allocateEm to i8*), i8* bitcast (void (%"class.cl::sycl::detail::SYCLMemObjAllocatorHolder"*, i8*, i64)* @_ZN2cl4sycl6detail25SYCLMemObjAllocatorHolderINS1_17aligned_allocatorIcEEE10deallocateEPvm to i8*), i8* bitcast (i64 (%"class.cl::sycl::detail::SYCLMemObjAllocatorHolder"*)* @_ZNK2cl4sycl6detail25SYCLMemObjAllocatorHolderINS1_17aligned_allocatorIcEEE12getValueSizeEv to i8*), i8* bitcast (void (%"class.cl::sycl::detail::SYCLMemObjAllocatorHolder"*, i64)* @_ZN2cl4sycl6detail25SYCLMemObjAllocatorHolderINS1_17aligned_allocatorIcEEE12setAlignmentEm to i8*)] }, comdat, align 8
@_ZTSN2cl4sycl6detail25SYCLMemObjAllocatorHolderINS1_17aligned_allocatorIcEEEE = linkonce_odr dso_local constant [74 x i8] c"N2cl4sycl6detail25SYCLMemObjAllocatorHolderINS1_17aligned_allocatorIcEEEE\00", comdat, align 1
@_ZTSN2cl4sycl6detail19SYCLMemObjAllocatorE = linkonce_odr dso_local constant [39 x i8] c"N2cl4sycl6detail19SYCLMemObjAllocatorE\00", comdat, align 1
@_ZTIN2cl4sycl6detail19SYCLMemObjAllocatorE = linkonce_odr dso_local constant { i8*, i8* } { i8* bitcast (i8** getelementptr inbounds (i8*, i8** @_ZTVN10__cxxabiv117__class_type_infoE, i64 2) to i8*), i8* getelementptr inbounds ([39 x i8], [39 x i8]* @_ZTSN2cl4sycl6detail19SYCLMemObjAllocatorE, i32 0, i32 0) }, comdat, align 8
@_ZTIN2cl4sycl6detail25SYCLMemObjAllocatorHolderINS1_17aligned_allocatorIcEEEE = linkonce_odr dso_local constant { i8*, i8*, i8* } { i8* bitcast (i8** getelementptr inbounds (i8*, i8** @_ZTVN10__cxxabiv120__si_class_type_infoE, i64 2) to i8*), i8* getelementptr inbounds ([74 x i8], [74 x i8]* @_ZTSN2cl4sycl6detail25SYCLMemObjAllocatorHolderINS1_17aligned_allocatorIcEEEE, i32 0, i32 0), i8* bitcast ({ i8*, i8* }* @_ZTIN2cl4sycl6detail19SYCLMemObjAllocatorE to i8*) }, comdat, align 8
@_ZTVN2cl4sycl6detail19SYCLMemObjAllocatorE = linkonce_odr dso_local unnamed_addr constant { [9 x i8*] } { [9 x i8*] [i8* null, i8* bitcast ({ i8*, i8* }* @_ZTIN2cl4sycl6detail19SYCLMemObjAllocatorE to i8*), i8* bitcast (void ()* @__cxa_pure_virtual to i8*), i8* bitcast (void (%"class.cl::sycl::detail::SYCLMemObjAllocator"*)* @_ZN2cl4sycl6detail19SYCLMemObjAllocatorD2Ev to i8*), i8* bitcast (void (%"class.cl::sycl::detail::SYCLMemObjAllocator"*)* @_ZN2cl4sycl6detail19SYCLMemObjAllocatorD0Ev to i8*), i8* bitcast (void ()* @__cxa_pure_virtual to i8*), i8* bitcast (void ()* @__cxa_pure_virtual to i8*), i8* bitcast (void ()* @__cxa_pure_virtual to i8*), i8* bitcast (void ()* @__cxa_pure_virtual to i8*)] }, comdat, align 8
@_ZTISt9bad_alloc = external dso_local constant i8*
@_ZTVSt9bad_alloc = external dso_local unnamed_addr constant { [5 x i8*] }, align 8
@_ZN2cl4sycl10write_onlyE = linkonce_odr dso_local constant %"struct.cl::sycl::mode_tag_t.155" zeroinitializer, comdat, align 1
@_ZTVSt15_Sp_counted_ptrIPN2cl4sycl6detail16AccessorImplHostELN9__gnu_cxx12_Lock_policyE2EE = linkonce_odr dso_local unnamed_addr constant { [7 x i8*] } { [7 x i8*] [i8* null, i8* bitcast ({ i8*, i8*, i8* }* @_ZTISt15_Sp_counted_ptrIPN2cl4sycl6detail16AccessorImplHostELN9__gnu_cxx12_Lock_policyE2EE to i8*), i8* bitcast (void (%"class.std::_Sp_counted_ptr"*)* @_ZNSt15_Sp_counted_ptrIPN2cl4sycl6detail16AccessorImplHostELN9__gnu_cxx12_Lock_policyE2EED2Ev to i8*), i8* bitcast (void (%"class.std::_Sp_counted_ptr"*)* @_ZNSt15_Sp_counted_ptrIPN2cl4sycl6detail16AccessorImplHostELN9__gnu_cxx12_Lock_policyE2EED0Ev to i8*), i8* bitcast (void (%"class.std::_Sp_counted_ptr"*)* @_ZNSt15_Sp_counted_ptrIPN2cl4sycl6detail16AccessorImplHostELN9__gnu_cxx12_Lock_policyE2EE10_M_disposeEv to i8*), i8* bitcast (void (%"class.std::_Sp_counted_ptr"*)* @_ZNSt15_Sp_counted_ptrIPN2cl4sycl6detail16AccessorImplHostELN9__gnu_cxx12_Lock_policyE2EE10_M_destroyEv to i8*), i8* bitcast (i8* (%"class.std::_Sp_counted_ptr"*, %"class.std::type_info"*)* @_ZNSt15_Sp_counted_ptrIPN2cl4sycl6detail16AccessorImplHostELN9__gnu_cxx12_Lock_policyE2EE14_M_get_deleterERKSt9type_info to i8*)] }, comdat, align 8
@_ZTSSt15_Sp_counted_ptrIPN2cl4sycl6detail16AccessorImplHostELN9__gnu_cxx12_Lock_policyE2EE = linkonce_odr dso_local constant [87 x i8] c"St15_Sp_counted_ptrIPN2cl4sycl6detail16AccessorImplHostELN9__gnu_cxx12_Lock_policyE2EE\00", comdat, align 1
@_ZTISt15_Sp_counted_ptrIPN2cl4sycl6detail16AccessorImplHostELN9__gnu_cxx12_Lock_policyE2EE = linkonce_odr dso_local constant { i8*, i8*, i8* } { i8* bitcast (i8** getelementptr inbounds (i8*, i8** @_ZTVN10__cxxabiv120__si_class_type_infoE, i64 2) to i8*), i8* getelementptr inbounds ([87 x i8], [87 x i8]* @_ZTSSt15_Sp_counted_ptrIPN2cl4sycl6detail16AccessorImplHostELN9__gnu_cxx12_Lock_policyE2EE, i32 0, i32 0), i8* bitcast ({ i8*, i8*, i8* }* @_ZTISt16_Sp_counted_baseILN9__gnu_cxx12_Lock_policyE2EE to i8*) }, comdat, align 8
@.str.12 = private unnamed_addr constant [99 x i8] c"SYCL buffer size is zero. To create a device accessor, SYCL buffer size must be greater than zero.\00", align 1
@.str.13 = private unnamed_addr constant [49 x i8] c"cannot create std::vector larger than max_size()\00", align 1
@_ZTVSt15_Sp_counted_ptrIPN2cl4sycl6detail21LocalAccessorImplHostELN9__gnu_cxx12_Lock_policyE2EE = linkonce_odr dso_local unnamed_addr constant { [7 x i8*] } { [7 x i8*] [i8* null, i8* bitcast ({ i8*, i8*, i8* }* @_ZTISt15_Sp_counted_ptrIPN2cl4sycl6detail21LocalAccessorImplHostELN9__gnu_cxx12_Lock_policyE2EE to i8*), i8* bitcast (void (%"class.std::_Sp_counted_ptr.160"*)* @_ZNSt15_Sp_counted_ptrIPN2cl4sycl6detail21LocalAccessorImplHostELN9__gnu_cxx12_Lock_policyE2EED2Ev to i8*), i8* bitcast (void (%"class.std::_Sp_counted_ptr.160"*)* @_ZNSt15_Sp_counted_ptrIPN2cl4sycl6detail21LocalAccessorImplHostELN9__gnu_cxx12_Lock_policyE2EED0Ev to i8*), i8* bitcast (void (%"class.std::_Sp_counted_ptr.160"*)* @_ZNSt15_Sp_counted_ptrIPN2cl4sycl6detail21LocalAccessorImplHostELN9__gnu_cxx12_Lock_policyE2EE10_M_disposeEv to i8*), i8* bitcast (void (%"class.std::_Sp_counted_ptr.160"*)* @_ZNSt15_Sp_counted_ptrIPN2cl4sycl6detail21LocalAccessorImplHostELN9__gnu_cxx12_Lock_policyE2EE10_M_destroyEv to i8*), i8* bitcast (i8* (%"class.std::_Sp_counted_ptr.160"*, %"class.std::type_info"*)* @_ZNSt15_Sp_counted_ptrIPN2cl4sycl6detail21LocalAccessorImplHostELN9__gnu_cxx12_Lock_policyE2EE14_M_get_deleterERKSt9type_info to i8*)] }, comdat, align 8
@_ZTSSt15_Sp_counted_ptrIPN2cl4sycl6detail21LocalAccessorImplHostELN9__gnu_cxx12_Lock_policyE2EE = linkonce_odr dso_local constant [92 x i8] c"St15_Sp_counted_ptrIPN2cl4sycl6detail21LocalAccessorImplHostELN9__gnu_cxx12_Lock_policyE2EE\00", comdat, align 1
@_ZTISt15_Sp_counted_ptrIPN2cl4sycl6detail21LocalAccessorImplHostELN9__gnu_cxx12_Lock_policyE2EE = linkonce_odr dso_local constant { i8*, i8*, i8* } { i8* bitcast (i8** getelementptr inbounds (i8*, i8** @_ZTVN10__cxxabiv120__si_class_type_infoE, i64 2) to i8*), i8* getelementptr inbounds ([92 x i8], [92 x i8]* @_ZTSSt15_Sp_counted_ptrIPN2cl4sycl6detail21LocalAccessorImplHostELN9__gnu_cxx12_Lock_policyE2EE, i32 0, i32 0), i8* bitcast ({ i8*, i8*, i8* }* @_ZTISt16_Sp_counted_baseILN9__gnu_cxx12_Lock_policyE2EE to i8*) }, comdat, align 8
@.str.14 = private unnamed_addr constant [40 x i8] c"SYCL_PARALLEL_FOR_RANGE_ROUNDING_PARAMS\00", align 1
@_ZTVN10__cxxabiv119__pointer_type_infoE = external dso_local global i8*
@_ZTSP2mm = internal constant [5 x i8] c"P2mm\00", align 1
@_ZTS2mm = internal constant [4 x i8] c"2mm\00", align 1
@_ZTI2mm = internal constant { i8*, i8* } { i8* bitcast (i8** getelementptr inbounds (i8*, i8** @_ZTVN10__cxxabiv117__class_type_infoE, i64 2) to i8*), i8* getelementptr inbounds ([4 x i8], [4 x i8]* @_ZTS2mm, i32 0, i32 0) }, align 8
@_ZTIP2mm = internal constant { i8*, i8*, i32, i8* } { i8* bitcast (i8** getelementptr inbounds (i8*, i8** @_ZTVN10__cxxabiv119__pointer_type_infoE, i64 2) to i8*), i8* getelementptr inbounds ([5 x i8], [5 x i8]* @_ZTSP2mm, i32 0, i32 0), i32 8, i8* bitcast ({ i8*, i8* }* @_ZTI2mm to i8*) }, align 8
@.str.15 = private unnamed_addr constant [41 x i8] c"SYCL_DISABLE_PARALLEL_FOR_RANGE_ROUNDING\00", align 1
@.str.16 = private unnamed_addr constant [39 x i8] c"SYCL_PARALLEL_FOR_RANGE_ROUNDING_TRACE\00", align 1
@.str.17 = private unnamed_addr constant [34 x i8] c"parallel_for range adjusted from \00", align 1
@.str.18 = private unnamed_addr constant [5 x i8] c" to \00", align 1
@.str.19 = private unnamed_addr constant [131 x i8] c"Attempt to set multiple actions for the command group. Command group must consist of a single kernel or explicit memory operation.\00", align 1
@.str.20 = private unnamed_addr constant [5 x i8] c"stoi\00", align 1
@_ZZN2cl4sycl6detail19checkValueRangeImplINS0_5rangeILi1EEEmEENSt9enable_ifIXoosr3std7is_sameIT0_mEE5valuesr3std7is_sameIS6_yEE5valueEvE4typeES6_E5Limit = linkonce_odr dso_local constant i64 2147483647, comdat, align 8
@.str.21 = private unnamed_addr constant [104 x i8] c"Provided range is out of integer limits. Pass `-fno-sycl-id-queries-fit-in-int' to disable range check.\00", align 1
@_ZZN2cl4sycl6detail19checkValueRangeImplINS0_5rangeILi1EEEyEENSt9enable_ifIXoosr3std7is_sameIT0_mEE5valuesr3std7is_sameIS6_yEE5valueEvE4typeES6_E5Limit = linkonce_odr dso_local constant i64 2147483647, comdat, align 8
@_ZTVN2cl4sycl6detail10HostKernelIZZ4mainENKUlRNS0_7handlerEE_clES4_EUlNS0_2idILi1EEEE_S7_Li1E2mmEE = internal unnamed_addr constant { [6 x i8*] } { [6 x i8*] [i8* null, i8* bitcast ({ i8*, i8*, i8* }* @_ZTIN2cl4sycl6detail10HostKernelIZZ4mainENKUlRNS0_7handlerEE_clES4_EUlNS0_2idILi1EEEE_S7_Li1E2mmEE to i8*), i8* bitcast (void (%"class.cl::sycl::detail::HostKernel"*, %"class.cl::sycl::detail::NDRDescT"*, %"class.cl::sycl::detail::HostProfilingInfo"*)* @_ZN2cl4sycl6detail10HostKernelIZZ4mainENKUlRNS0_7handlerEE_clES4_EUlNS0_2idILi1EEEE_S7_Li1E2mmE4callERKNS1_8NDRDescTEPNS1_17HostProfilingInfoE to i8*), i8* bitcast (i8* (%"class.cl::sycl::detail::HostKernel"*)* @_ZN2cl4sycl6detail10HostKernelIZZ4mainENKUlRNS0_7handlerEE_clES4_EUlNS0_2idILi1EEEE_S7_Li1E2mmE6getPtrEv to i8*), i8* bitcast (void (%"class.cl::sycl::detail::HostKernel"*)* @_ZN2cl4sycl6detail10HostKernelIZZ4mainENKUlRNS0_7handlerEE_clES4_EUlNS0_2idILi1EEEE_S7_Li1E2mmED2Ev to i8*), i8* bitcast (void (%"class.cl::sycl::detail::HostKernel"*)* @_ZN2cl4sycl6detail10HostKernelIZZ4mainENKUlRNS0_7handlerEE_clES4_EUlNS0_2idILi1EEEE_S7_Li1E2mmED0Ev to i8*)] }, align 8
@_ZTSN2cl4sycl6detail10HostKernelIZZ4mainENKUlRNS0_7handlerEE_clES4_EUlNS0_2idILi1EEEE_S7_Li1E2mmEE = internal constant [95 x i8] c"N2cl4sycl6detail10HostKernelIZZ4mainENKUlRNS0_7handlerEE_clES4_EUlNS0_2idILi1EEEE_S7_Li1E2mmEE\00", align 1
@_ZTSN2cl4sycl6detail14HostKernelBaseE = linkonce_odr dso_local constant [34 x i8] c"N2cl4sycl6detail14HostKernelBaseE\00", comdat, align 1
@_ZTIN2cl4sycl6detail14HostKernelBaseE = linkonce_odr dso_local constant { i8*, i8* } { i8* bitcast (i8** getelementptr inbounds (i8*, i8** @_ZTVN10__cxxabiv117__class_type_infoE, i64 2) to i8*), i8* getelementptr inbounds ([34 x i8], [34 x i8]* @_ZTSN2cl4sycl6detail14HostKernelBaseE, i32 0, i32 0) }, comdat, align 8
@_ZTIN2cl4sycl6detail10HostKernelIZZ4mainENKUlRNS0_7handlerEE_clES4_EUlNS0_2idILi1EEEE_S7_Li1E2mmEE = internal constant { i8*, i8*, i8* } { i8* bitcast (i8** getelementptr inbounds (i8*, i8** @_ZTVN10__cxxabiv120__si_class_type_infoE, i64 2) to i8*), i8* getelementptr inbounds ([95 x i8], [95 x i8]* @_ZTSN2cl4sycl6detail10HostKernelIZZ4mainENKUlRNS0_7handlerEE_clES4_EUlNS0_2idILi1EEEE_S7_Li1E2mmEE, i32 0, i32 0), i8* bitcast ({ i8*, i8* }* @_ZTIN2cl4sycl6detail14HostKernelBaseE to i8*) }, align 8
@_ZTVN2cl4sycl6detail14HostKernelBaseE = linkonce_odr dso_local unnamed_addr constant { [6 x i8*] } { [6 x i8*] [i8* null, i8* bitcast ({ i8*, i8* }* @_ZTIN2cl4sycl6detail14HostKernelBaseE to i8*), i8* bitcast (void ()* @__cxa_pure_virtual to i8*), i8* bitcast (void ()* @__cxa_pure_virtual to i8*), i8* bitcast (void (%"class.cl::sycl::detail::HostKernelBase"*)* @_ZN2cl4sycl6detail14HostKernelBaseD2Ev to i8*), i8* bitcast (void (%"class.cl::sycl::detail::HostKernelBase"*)* @_ZN2cl4sycl6detail14HostKernelBaseD0Ev to i8*)] }, comdat, align 8
@_ZN2cl4sycl6detailL17kernel_signaturesE = internal constant [6 x %"struct.cl::sycl::detail::kernel_param_desc_t"] [%"struct.cl::sycl::detail::kernel_param_desc_t" { i32 0, i32 4064, i32 0 }, %"struct.cl::sycl::detail::kernel_param_desc_t" { i32 0, i32 4064, i32 32 }, %"struct.cl::sycl::detail::kernel_param_desc_t" { i32 0, i32 4064, i32 64 }, %"struct.cl::sycl::detail::kernel_param_desc_t" { i32 0, i32 4062, i32 96 }, %"struct.cl::sycl::detail::kernel_param_desc_t" { i32 0, i32 4062, i32 128 }, %"struct.cl::sycl::detail::kernel_param_desc_t" { i32 0, i32 4062, i32 160 }], align 16
@.str.22 = private unnamed_addr constant [48 x i8] c"_ZTSZZ4mainENKUlRN2cl4sycl7handlerEE_clES2_E2mm\00", align 1
@_ZTSZ4mainEUlRN2cl4sycl7handlerEE_ = internal constant [31 x i8] c"Z4mainEUlRN2cl4sycl7handlerEE_\00", align 1
@_ZTIZ4mainEUlRN2cl4sycl7handlerEE_ = internal constant { i8*, i8* } { i8* bitcast (i8** getelementptr inbounds (i8*, i8** @_ZTVN10__cxxabiv117__class_type_infoE, i64 2) to i8*), i8* getelementptr inbounds ([31 x i8], [31 x i8]* @_ZTSZ4mainEUlRN2cl4sycl7handlerEE_, i32 0, i32 0) }, align 8
@llvm.global_ctors = appending global [1 x { i32, void ()*, i8* }] [{ i32, void ()*, i8* } { i32 65535, void ()* @_GLOBAL__sub_I_tensor.cpp, i8* null }]

; Function Attrs: noinline uwtable
define internal void @__cxx_global_var_init() #0 section ".text.startup" {
entry:
  call void @_ZNSt8ios_base4InitC1Ev(%"class.std::ios_base::Init"* nonnull align 1 dereferenceable(1) @_ZStL8__ioinit)
  %0 = call i32 @__cxa_atexit(void (i8*)* bitcast (void (%"class.std::ios_base::Init"*)* @_ZNSt8ios_base4InitD1Ev to void (i8*)*), i8* getelementptr inbounds (%"class.std::ios_base::Init", %"class.std::ios_base::Init"* @_ZStL8__ioinit, i32 0, i32 0), i8* @__dso_handle) #3
  ret void
}

declare dso_local void @_ZNSt8ios_base4InitC1Ev(%"class.std::ios_base::Init"* nonnull align 1 dereferenceable(1)) unnamed_addr #1

; Function Attrs: nounwind
declare dso_local void @_ZNSt8ios_base4InitD1Ev(%"class.std::ios_base::Init"* nonnull align 1 dereferenceable(1)) unnamed_addr #2

; Function Attrs: nounwind
declare dso_local i32 @__cxa_atexit(void (i8*)*, i8*, i8*) #3

; Function Attrs: noinline nounwind optnone uwtable mustprogress
define dso_local i64 @_Z7getTimev() #4 {
entry:
  %tv = alloca %struct.timeval, align 8
  %call = call i32 @gettimeofday(%struct.timeval* %tv, i8* null) #3
  %tv_sec = getelementptr inbounds %struct.timeval, %struct.timeval* %tv, i32 0, i32 0
  %0 = load i64, i64* %tv_sec, align 8
  %mul = mul nsw i64 %0, 1000000
  %tv_usec = getelementptr inbounds %struct.timeval, %struct.timeval* %tv, i32 0, i32 1
  %1 = load i64, i64* %tv_usec, align 8
  %add = add nsw i64 %mul, %1
  ret i64 %add
}

; Function Attrs: nounwind
declare dso_local i32 @gettimeofday(%struct.timeval*, i8*) #2

; Function Attrs: noinline norecurse optnone uwtable mustprogress
define dso_local i32 @main() #5 personality i8* bitcast (i32 (...)* @__gxx_personality_v0 to i8*) {
entry:
  %retval = alloca i32, align 4
  %Selector = alloca %"class.cl::sycl::gpu_selector", align 8
  %Q = alloca %"class.cl::sycl::queue", align 8
  %ref.tmp = alloca %"class.cl::sycl::property_list", align 8
  %exn.slot = alloca i8*, align 8
  %ehselector.slot = alloca i32, align 4
  %d = alloca float*, align 8
  %a = alloca float*, align 8
  %b = alloca float*, align 8
  %c = alloca float*, align 8
  %i = alloca i32, align 4
  %arr_range = alloca %"class.cl::sycl::range", align 8
  %bufferD = alloca %"class.cl::sycl::buffer", align 8
  %ref.tmp12 = alloca %"class.cl::sycl::property_list", align 8
  %bufferA = alloca %"class.cl::sycl::buffer", align 8
  %ref.tmp16 = alloca %"class.cl::sycl::property_list", align 8
  %bufferB = alloca %"class.cl::sycl::buffer", align 8
  %ref.tmp21 = alloca %"class.cl::sycl::property_list", align 8
  %bufferC = alloca %"class.cl::sycl::buffer", align 8
  %ref.tmp26 = alloca %"class.cl::sycl::property_list", align 8
  %startTime = alloca i64, align 8
  %agg.tmp.ensured = alloca %"class.cl::sycl::event", align 8
  %agg.tmp = alloca %class.anon, align 8
  %ref.tmp32 = alloca %"struct.cl::sycl::detail::code_location", align 8
  %host_accC = alloca %"class.cl::sycl::host_accessor", align 8
  %agg.tmp35 = alloca %"struct.cl::sycl::mode_tag_t", align 1
  %ref.tmp36 = alloca %"class.cl::sycl::property_list", align 8
  %agg.tmp43 = alloca %"class.cl::sycl::id.25", align 8
  %agg.tmp52 = alloca %"class.cl::sycl::id.25", align 8
  %endTime = alloca i64, align 8
  store i32 0, i32* %retval, align 4
  call void @_ZN2cl4sycl12gpu_selectorC2Ev(%"class.cl::sycl::gpu_selector"* nonnull align 8 dereferenceable(8) %Selector) #3
  %0 = bitcast %"class.cl::sycl::gpu_selector"* %Selector to %"class.cl::sycl::device_selector"*
  invoke void @_ZN2cl4sycl13property_listC2IJEvEEDpT_(%"class.cl::sycl::property_list"* nonnull align 8 dereferenceable(32) %ref.tmp)
          to label %invoke.cont unwind label %lpad

invoke.cont:                                      ; preds = %entry
  invoke void @_ZN2cl4sycl5queueC2ERKNS0_15device_selectorERKNS0_13property_listE(%"class.cl::sycl::queue"* nonnull align 8 dereferenceable(16) %Q, %"class.cl::sycl::device_selector"* nonnull align 8 dereferenceable(8) %0, %"class.cl::sycl::property_list"* nonnull align 8 dereferenceable(32) %ref.tmp)
          to label %invoke.cont2 unwind label %lpad1

invoke.cont2:                                     ; preds = %invoke.cont
  call void @_ZN2cl4sycl13property_listD2Ev(%"class.cl::sycl::property_list"* nonnull align 8 dereferenceable(32) %ref.tmp) #3
  %call = call noalias align 16 i8* @malloc(i64 8192) #3
  %1 = bitcast i8* %call to float*
  store float* %1, float** %d, align 8
  %call3 = call noalias align 16 i8* @malloc(i64 8192) #3
  %2 = bitcast i8* %call3 to float*
  store float* %2, float** %a, align 8
  %call4 = call noalias align 16 i8* @malloc(i64 8192) #3
  %3 = bitcast i8* %call4 to float*
  store float* %3, float** %b, align 8
  %call5 = call noalias align 16 i8* @malloc(i64 8192) #3
  %4 = bitcast i8* %call5 to float*
  store float* %4, float** %c, align 8
  store i32 0, i32* %i, align 4
  br label %for.cond

for.cond:                                         ; preds = %for.inc, %invoke.cont2
  %5 = load i32, i32* %i, align 4
  %cmp = icmp slt i32 %5, 2048
  br i1 %cmp, label %for.body, label %for.end

for.body:                                         ; preds = %for.cond
  %6 = load float*, float** %a, align 8
  %7 = load i32, i32* %i, align 4
  %idxprom = sext i32 %7 to i64
  %arrayidx = getelementptr inbounds float, float* %6, i64 %idxprom
  store float 1.000000e+00, float* %arrayidx, align 4
  %8 = load float*, float** %b, align 8
  %9 = load i32, i32* %i, align 4
  %idxprom6 = sext i32 %9 to i64
  %arrayidx7 = getelementptr inbounds float, float* %8, i64 %idxprom6
  store float 2.000000e+00, float* %arrayidx7, align 4
  %10 = load float*, float** %c, align 8
  %11 = load i32, i32* %i, align 4
  %idxprom8 = sext i32 %11 to i64
  %arrayidx9 = getelementptr inbounds float, float* %10, i64 %idxprom8
  store float 0.000000e+00, float* %arrayidx9, align 4
  br label %for.inc

for.inc:                                          ; preds = %for.body
  %12 = load i32, i32* %i, align 4
  %inc = add nsw i32 %12, 1
  store i32 %inc, i32* %i, align 4
  br label %for.cond, !llvm.loop !4

lpad:                                             ; preds = %entry
  %13 = landingpad { i8*, i32 }
          cleanup
  %14 = extractvalue { i8*, i32 } %13, 0
  store i8* %14, i8** %exn.slot, align 8
  %15 = extractvalue { i8*, i32 } %13, 1
  store i32 %15, i32* %ehselector.slot, align 4
  br label %ehcleanup73

lpad1:                                            ; preds = %invoke.cont
  %16 = landingpad { i8*, i32 }
          cleanup
  %17 = extractvalue { i8*, i32 } %16, 0
  store i8* %17, i8** %exn.slot, align 8
  %18 = extractvalue { i8*, i32 } %16, 1
  store i32 %18, i32* %ehselector.slot, align 4
  call void @_ZN2cl4sycl13property_listD2Ev(%"class.cl::sycl::property_list"* nonnull align 8 dereferenceable(32) %ref.tmp) #3
  br label %ehcleanup73

for.end:                                          ; preds = %for.cond
  invoke void @_ZN2cl4sycl5rangeILi1EEC2ILi1EEENSt9enable_ifIXeqT_Li1EEmE4typeE(%"class.cl::sycl::range"* nonnull align 8 dereferenceable(8) %arr_range, i64 2048)
          to label %invoke.cont11 unwind label %lpad10

invoke.cont11:                                    ; preds = %for.end
  %19 = load float*, float** %d, align 8
  invoke void @_ZN2cl4sycl13property_listC2IJEvEEDpT_(%"class.cl::sycl::property_list"* nonnull align 8 dereferenceable(32) %ref.tmp12)
          to label %invoke.cont13 unwind label %lpad10

invoke.cont13:                                    ; preds = %invoke.cont11
  invoke void @_ZN2cl4sycl6bufferIfLi1ENS0_6detail17aligned_allocatorIcEEvEC2EPfRKNS0_5rangeILi1EEERKNS0_13property_listE(%"class.cl::sycl::buffer"* nonnull align 8 dereferenceable(33) %bufferD, float* %19, %"class.cl::sycl::range"* nonnull align 8 dereferenceable(8) %arr_range, %"class.cl::sycl::property_list"* nonnull align 8 dereferenceable(32) %ref.tmp12)
          to label %invoke.cont15 unwind label %lpad14

invoke.cont15:                                    ; preds = %invoke.cont13
  call void @_ZN2cl4sycl13property_listD2Ev(%"class.cl::sycl::property_list"* nonnull align 8 dereferenceable(32) %ref.tmp12) #3
  %20 = load float*, float** %a, align 8
  invoke void @_ZN2cl4sycl13property_listC2IJEvEEDpT_(%"class.cl::sycl::property_list"* nonnull align 8 dereferenceable(32) %ref.tmp16)
          to label %invoke.cont18 unwind label %lpad17

invoke.cont18:                                    ; preds = %invoke.cont15
  invoke void @_ZN2cl4sycl6bufferIfLi1ENS0_6detail17aligned_allocatorIcEEvEC2EPfRKNS0_5rangeILi1EEERKNS0_13property_listE(%"class.cl::sycl::buffer"* nonnull align 8 dereferenceable(33) %bufferA, float* %20, %"class.cl::sycl::range"* nonnull align 8 dereferenceable(8) %arr_range, %"class.cl::sycl::property_list"* nonnull align 8 dereferenceable(32) %ref.tmp16)
          to label %invoke.cont20 unwind label %lpad19

invoke.cont20:                                    ; preds = %invoke.cont18
  call void @_ZN2cl4sycl13property_listD2Ev(%"class.cl::sycl::property_list"* nonnull align 8 dereferenceable(32) %ref.tmp16) #3
  %21 = load float*, float** %b, align 8
  invoke void @_ZN2cl4sycl13property_listC2IJEvEEDpT_(%"class.cl::sycl::property_list"* nonnull align 8 dereferenceable(32) %ref.tmp21)
          to label %invoke.cont23 unwind label %lpad22

invoke.cont23:                                    ; preds = %invoke.cont20
  invoke void @_ZN2cl4sycl6bufferIfLi1ENS0_6detail17aligned_allocatorIcEEvEC2EPfRKNS0_5rangeILi1EEERKNS0_13property_listE(%"class.cl::sycl::buffer"* nonnull align 8 dereferenceable(33) %bufferB, float* %21, %"class.cl::sycl::range"* nonnull align 8 dereferenceable(8) %arr_range, %"class.cl::sycl::property_list"* nonnull align 8 dereferenceable(32) %ref.tmp21)
          to label %invoke.cont25 unwind label %lpad24

invoke.cont25:                                    ; preds = %invoke.cont23
  call void @_ZN2cl4sycl13property_listD2Ev(%"class.cl::sycl::property_list"* nonnull align 8 dereferenceable(32) %ref.tmp21) #3
  %22 = load float*, float** %c, align 8
  invoke void @_ZN2cl4sycl13property_listC2IJEvEEDpT_(%"class.cl::sycl::property_list"* nonnull align 8 dereferenceable(32) %ref.tmp26)
          to label %invoke.cont28 unwind label %lpad27

invoke.cont28:                                    ; preds = %invoke.cont25
  invoke void @_ZN2cl4sycl6bufferIfLi1ENS0_6detail17aligned_allocatorIcEEvEC2EPfRKNS0_5rangeILi1EEERKNS0_13property_listE(%"class.cl::sycl::buffer"* nonnull align 8 dereferenceable(33) %bufferC, float* %22, %"class.cl::sycl::range"* nonnull align 8 dereferenceable(8) %arr_range, %"class.cl::sycl::property_list"* nonnull align 8 dereferenceable(32) %ref.tmp26)
          to label %invoke.cont30 unwind label %lpad29

invoke.cont30:                                    ; preds = %invoke.cont28
  call void @_ZN2cl4sycl13property_listD2Ev(%"class.cl::sycl::property_list"* nonnull align 8 dereferenceable(32) %ref.tmp26) #3
  %call31 = call i64 @_Z7getTimev()
  store i64 %call31, i64* %startTime, align 8
  %23 = getelementptr inbounds %class.anon, %class.anon* %agg.tmp, i32 0, i32 0
  store %"class.cl::sycl::buffer"* %bufferD, %"class.cl::sycl::buffer"** %23, align 8
  %24 = getelementptr inbounds %class.anon, %class.anon* %agg.tmp, i32 0, i32 1
  store %"class.cl::sycl::buffer"* %bufferA, %"class.cl::sycl::buffer"** %24, align 8
  %25 = getelementptr inbounds %class.anon, %class.anon* %agg.tmp, i32 0, i32 2
  store %"class.cl::sycl::buffer"* %bufferB, %"class.cl::sycl::buffer"** %25, align 8
  %26 = getelementptr inbounds %class.anon, %class.anon* %agg.tmp, i32 0, i32 3
  store %"class.cl::sycl::buffer"* %bufferC, %"class.cl::sycl::buffer"** %26, align 8
  call void @_ZN2cl4sycl6detail13code_location7currentEPKcS4_mm(%"struct.cl::sycl::detail::code_location"* sret(%"struct.cl::sycl::detail::code_location") align 8 %ref.tmp32, i8* getelementptr inbounds ([11 x i8], [11 x i8]* @.str, i32 0, i32 0), i8* getelementptr inbounds ([5 x i8], [5 x i8]* @.str.1, i32 0, i32 0), i64 45, i64 0) #3
  invoke void @_ZN2cl4sycl5queue6submitIZ4mainEUlRNS0_7handlerEE_EENS0_5eventET_RKNS0_6detail13code_locationE(%"class.cl::sycl::event"* sret(%"class.cl::sycl::event") align 8 %agg.tmp.ensured, %"class.cl::sycl::queue"* nonnull align 8 dereferenceable(16) %Q, %class.anon* byval(%class.anon) align 8 %agg.tmp, %"struct.cl::sycl::detail::code_location"* nonnull align 8 dereferenceable(32) %ref.tmp32)
          to label %invoke.cont34 unwind label %lpad33

invoke.cont34:                                    ; preds = %invoke.cont30
  call void @_ZN2cl4sycl5eventD2Ev(%"class.cl::sycl::event"* nonnull align 8 dereferenceable(16) %agg.tmp.ensured) #3
  invoke void @_ZN2cl4sycl13property_listC2IJEvEEDpT_(%"class.cl::sycl::property_list"* nonnull align 8 dereferenceable(32) %ref.tmp36)
          to label %invoke.cont37 unwind label %lpad33

invoke.cont37:                                    ; preds = %invoke.cont34
  invoke void @_ZN2cl4sycl13host_accessorIfLi1ELNS0_6access4modeE1024EEC2IfLi1ENS0_6detail17aligned_allocatorIcEEvEERNS0_6bufferIfLi1ET1_vEENS0_10mode_tag_tILS3_1024EEERKNS0_13property_listE(%"class.cl::sycl::host_accessor"* nonnull align 8 dereferenceable(32) %host_accC, %"class.cl::sycl::buffer"* nonnull align 8 dereferenceable(33) %bufferC, %"class.cl::sycl::property_list"* nonnull align 8 dereferenceable(32) %ref.tmp36)
          to label %invoke.cont39 unwind label %lpad38

invoke.cont39:                                    ; preds = %invoke.cont37
  call void @_ZN2cl4sycl13property_listD2Ev(%"class.cl::sycl::property_list"* nonnull align 8 dereferenceable(32) %ref.tmp36) #3
  %call42 = invoke nonnull align 8 dereferenceable(8) %"class.std::basic_ostream"* @_ZStlsISt11char_traitsIcEERSt13basic_ostreamIcT_ES5_PKc(%"class.std::basic_ostream"* nonnull align 8 dereferenceable(8) @_ZSt4cout, i8* getelementptr inbounds ([9 x i8], [9 x i8]* @.str.2, i64 0, i64 0))
          to label %invoke.cont41 unwind label %lpad40

invoke.cont41:                                    ; preds = %invoke.cont39
  %27 = bitcast %"class.cl::sycl::host_accessor"* %host_accC to %"class.cl::sycl::accessor"*
  invoke void @_ZN2cl4sycl2idILi1EEC2ILi1EEENSt9enable_ifIXeqT_Li1EEmE4typeE(%"class.cl::sycl::id.25"* nonnull align 8 dereferenceable(8) %agg.tmp43, i64 0)
          to label %invoke.cont44 unwind label %lpad40

invoke.cont44:                                    ; preds = %invoke.cont41
  %coerce.dive = getelementptr inbounds %"class.cl::sycl::id.25", %"class.cl::sycl::id.25"* %agg.tmp43, i32 0, i32 0
  %coerce.dive45 = getelementptr inbounds %"class.cl::sycl::detail::array", %"class.cl::sycl::detail::array"* %coerce.dive, i32 0, i32 0
  %28 = bitcast [1 x i64]* %coerce.dive45 to i64*
  %29 = load i64, i64* %28, align 8
  %call47 = invoke nonnull align 4 dereferenceable(4) float* @_ZNK2cl4sycl8accessorIfLi1ELNS0_6access4modeE1024ELNS2_6targetE2018ELNS2_11placeholderE0ENS0_6ONEAPI22accessor_property_listIJEEEEixILi1EEENSt9enable_ifIXaagtT_Li0EL_ZNS0_6detail15accessor_commonIfLi1ELS3_1024ELS4_2018ELS5_0ES8_E16IsAccessReadOnlyEEERKfE4typeENS0_2idILi1EEE(%"class.cl::sycl::accessor"* nonnull align 8 dereferenceable(32) %27, i64 %29)
          to label %invoke.cont46 unwind label %lpad40

invoke.cont46:                                    ; preds = %invoke.cont44
  %30 = load float, float* %call47, align 4
  %call49 = invoke nonnull align 8 dereferenceable(8) %"class.std::basic_ostream"* @_ZNSolsEf(%"class.std::basic_ostream"* nonnull align 8 dereferenceable(8) %call42, float %30)
          to label %invoke.cont48 unwind label %lpad40

invoke.cont48:                                    ; preds = %invoke.cont46
  %call51 = invoke nonnull align 8 dereferenceable(8) %"class.std::basic_ostream"* @_ZStlsISt11char_traitsIcEERSt13basic_ostreamIcT_ES5_PKc(%"class.std::basic_ostream"* nonnull align 8 dereferenceable(8) %call49, i8* getelementptr inbounds ([5 x i8], [5 x i8]* @.str.3, i64 0, i64 0))
          to label %invoke.cont50 unwind label %lpad40

invoke.cont50:                                    ; preds = %invoke.cont48
  %31 = bitcast %"class.cl::sycl::host_accessor"* %host_accC to %"class.cl::sycl::accessor"*
  invoke void @_ZN2cl4sycl2idILi1EEC2ILi1EEENSt9enable_ifIXeqT_Li1EEmE4typeE(%"class.cl::sycl::id.25"* nonnull align 8 dereferenceable(8) %agg.tmp52, i64 2047)
          to label %invoke.cont53 unwind label %lpad40

invoke.cont53:                                    ; preds = %invoke.cont50
  %coerce.dive54 = getelementptr inbounds %"class.cl::sycl::id.25", %"class.cl::sycl::id.25"* %agg.tmp52, i32 0, i32 0
  %coerce.dive55 = getelementptr inbounds %"class.cl::sycl::detail::array", %"class.cl::sycl::detail::array"* %coerce.dive54, i32 0, i32 0
  %32 = bitcast [1 x i64]* %coerce.dive55 to i64*
  %33 = load i64, i64* %32, align 8
  %call57 = invoke nonnull align 4 dereferenceable(4) float* @_ZNK2cl4sycl8accessorIfLi1ELNS0_6access4modeE1024ELNS2_6targetE2018ELNS2_11placeholderE0ENS0_6ONEAPI22accessor_property_listIJEEEEixILi1EEENSt9enable_ifIXaagtT_Li0EL_ZNS0_6detail15accessor_commonIfLi1ELS3_1024ELS4_2018ELS5_0ES8_E16IsAccessReadOnlyEEERKfE4typeENS0_2idILi1EEE(%"class.cl::sycl::accessor"* nonnull align 8 dereferenceable(32) %31, i64 %33)
          to label %invoke.cont56 unwind label %lpad40

invoke.cont56:                                    ; preds = %invoke.cont53
  %34 = load float, float* %call57, align 4
  %call59 = invoke nonnull align 8 dereferenceable(8) %"class.std::basic_ostream"* @_ZNSolsEf(%"class.std::basic_ostream"* nonnull align 8 dereferenceable(8) %call51, float %34)
          to label %invoke.cont58 unwind label %lpad40

invoke.cont58:                                    ; preds = %invoke.cont56
  %call61 = invoke nonnull align 8 dereferenceable(8) %"class.std::basic_ostream"* @_ZNSolsEPFRSoS_E(%"class.std::basic_ostream"* nonnull align 8 dereferenceable(8) %call59, %"class.std::basic_ostream"* (%"class.std::basic_ostream"*)* @_ZSt4endlIcSt11char_traitsIcEERSt13basic_ostreamIT_T0_ES6_)
          to label %invoke.cont60 unwind label %lpad40

invoke.cont60:                                    ; preds = %invoke.cont58
  %call62 = call i64 @_Z7getTimev()
  store i64 %call62, i64* %endTime, align 8
  %call64 = invoke nonnull align 8 dereferenceable(8) %"class.std::basic_ostream"* @_ZStlsISt11char_traitsIcEERSt13basic_ostreamIcT_ES5_PKc(%"class.std::basic_ostream"* nonnull align 8 dereferenceable(8) @_ZSt4cout, i8* getelementptr inbounds ([7 x i8], [7 x i8]* @.str.4, i64 0, i64 0))
          to label %invoke.cont63 unwind label %lpad40

invoke.cont63:                                    ; preds = %invoke.cont60
  %35 = load i64, i64* %endTime, align 8
  %36 = load i64, i64* %startTime, align 8
  %sub = sub nsw i64 %35, %36
  %call66 = invoke nonnull align 8 dereferenceable(8) %"class.std::basic_ostream"* @_ZNSolsEx(%"class.std::basic_ostream"* nonnull align 8 dereferenceable(8) %call64, i64 %sub)
          to label %invoke.cont65 unwind label %lpad40

invoke.cont65:                                    ; preds = %invoke.cont63
  %call68 = invoke nonnull align 8 dereferenceable(8) %"class.std::basic_ostream"* @_ZNSolsEPFRSoS_E(%"class.std::basic_ostream"* nonnull align 8 dereferenceable(8) %call66, %"class.std::basic_ostream"* (%"class.std::basic_ostream"*)* @_ZSt4endlIcSt11char_traitsIcEERSt13basic_ostreamIT_T0_ES6_)
          to label %invoke.cont67 unwind label %lpad40

invoke.cont67:                                    ; preds = %invoke.cont65
  store i32 0, i32* %retval, align 4
  call void @_ZN2cl4sycl13host_accessorIfLi1ELNS0_6access4modeE1024EED2Ev(%"class.cl::sycl::host_accessor"* nonnull align 8 dereferenceable(32) %host_accC) #3
  call void @_ZN2cl4sycl6bufferIfLi1ENS0_6detail17aligned_allocatorIcEEvED2Ev(%"class.cl::sycl::buffer"* nonnull align 8 dereferenceable(33) %bufferC) #3
  call void @_ZN2cl4sycl6bufferIfLi1ENS0_6detail17aligned_allocatorIcEEvED2Ev(%"class.cl::sycl::buffer"* nonnull align 8 dereferenceable(33) %bufferB) #3
  call void @_ZN2cl4sycl6bufferIfLi1ENS0_6detail17aligned_allocatorIcEEvED2Ev(%"class.cl::sycl::buffer"* nonnull align 8 dereferenceable(33) %bufferA) #3
  call void @_ZN2cl4sycl6bufferIfLi1ENS0_6detail17aligned_allocatorIcEEvED2Ev(%"class.cl::sycl::buffer"* nonnull align 8 dereferenceable(33) %bufferD) #3
  call void @_ZN2cl4sycl5queueD2Ev(%"class.cl::sycl::queue"* nonnull align 8 dereferenceable(16) %Q) #3
  call void @_ZN2cl4sycl12gpu_selectorD2Ev(%"class.cl::sycl::gpu_selector"* nonnull align 8 dereferenceable(8) %Selector) #3
  %37 = load i32, i32* %retval, align 4
  ret i32 %37

lpad10:                                           ; preds = %invoke.cont11, %for.end
  %38 = landingpad { i8*, i32 }
          cleanup
  %39 = extractvalue { i8*, i32 } %38, 0
  store i8* %39, i8** %exn.slot, align 8
  %40 = extractvalue { i8*, i32 } %38, 1
  store i32 %40, i32* %ehselector.slot, align 4
  br label %ehcleanup72

lpad14:                                           ; preds = %invoke.cont13
  %41 = landingpad { i8*, i32 }
          cleanup
  %42 = extractvalue { i8*, i32 } %41, 0
  store i8* %42, i8** %exn.slot, align 8
  %43 = extractvalue { i8*, i32 } %41, 1
  store i32 %43, i32* %ehselector.slot, align 4
  call void @_ZN2cl4sycl13property_listD2Ev(%"class.cl::sycl::property_list"* nonnull align 8 dereferenceable(32) %ref.tmp12) #3
  br label %ehcleanup72

lpad17:                                           ; preds = %invoke.cont15
  %44 = landingpad { i8*, i32 }
          cleanup
  %45 = extractvalue { i8*, i32 } %44, 0
  store i8* %45, i8** %exn.slot, align 8
  %46 = extractvalue { i8*, i32 } %44, 1
  store i32 %46, i32* %ehselector.slot, align 4
  br label %ehcleanup71

lpad19:                                           ; preds = %invoke.cont18
  %47 = landingpad { i8*, i32 }
          cleanup
  %48 = extractvalue { i8*, i32 } %47, 0
  store i8* %48, i8** %exn.slot, align 8
  %49 = extractvalue { i8*, i32 } %47, 1
  store i32 %49, i32* %ehselector.slot, align 4
  call void @_ZN2cl4sycl13property_listD2Ev(%"class.cl::sycl::property_list"* nonnull align 8 dereferenceable(32) %ref.tmp16) #3
  br label %ehcleanup71

lpad22:                                           ; preds = %invoke.cont20
  %50 = landingpad { i8*, i32 }
          cleanup
  %51 = extractvalue { i8*, i32 } %50, 0
  store i8* %51, i8** %exn.slot, align 8
  %52 = extractvalue { i8*, i32 } %50, 1
  store i32 %52, i32* %ehselector.slot, align 4
  br label %ehcleanup70

lpad24:                                           ; preds = %invoke.cont23
  %53 = landingpad { i8*, i32 }
          cleanup
  %54 = extractvalue { i8*, i32 } %53, 0
  store i8* %54, i8** %exn.slot, align 8
  %55 = extractvalue { i8*, i32 } %53, 1
  store i32 %55, i32* %ehselector.slot, align 4
  call void @_ZN2cl4sycl13property_listD2Ev(%"class.cl::sycl::property_list"* nonnull align 8 dereferenceable(32) %ref.tmp21) #3
  br label %ehcleanup70

lpad27:                                           ; preds = %invoke.cont25
  %56 = landingpad { i8*, i32 }
          cleanup
  %57 = extractvalue { i8*, i32 } %56, 0
  store i8* %57, i8** %exn.slot, align 8
  %58 = extractvalue { i8*, i32 } %56, 1
  store i32 %58, i32* %ehselector.slot, align 4
  br label %ehcleanup69

lpad29:                                           ; preds = %invoke.cont28
  %59 = landingpad { i8*, i32 }
          cleanup
  %60 = extractvalue { i8*, i32 } %59, 0
  store i8* %60, i8** %exn.slot, align 8
  %61 = extractvalue { i8*, i32 } %59, 1
  store i32 %61, i32* %ehselector.slot, align 4
  call void @_ZN2cl4sycl13property_listD2Ev(%"class.cl::sycl::property_list"* nonnull align 8 dereferenceable(32) %ref.tmp26) #3
  br label %ehcleanup69

lpad33:                                           ; preds = %invoke.cont34, %invoke.cont30
  %62 = landingpad { i8*, i32 }
          cleanup
  %63 = extractvalue { i8*, i32 } %62, 0
  store i8* %63, i8** %exn.slot, align 8
  %64 = extractvalue { i8*, i32 } %62, 1
  store i32 %64, i32* %ehselector.slot, align 4
  br label %ehcleanup

lpad38:                                           ; preds = %invoke.cont37
  %65 = landingpad { i8*, i32 }
          cleanup
  %66 = extractvalue { i8*, i32 } %65, 0
  store i8* %66, i8** %exn.slot, align 8
  %67 = extractvalue { i8*, i32 } %65, 1
  store i32 %67, i32* %ehselector.slot, align 4
  call void @_ZN2cl4sycl13property_listD2Ev(%"class.cl::sycl::property_list"* nonnull align 8 dereferenceable(32) %ref.tmp36) #3
  br label %ehcleanup

lpad40:                                           ; preds = %invoke.cont65, %invoke.cont63, %invoke.cont60, %invoke.cont58, %invoke.cont56, %invoke.cont53, %invoke.cont50, %invoke.cont48, %invoke.cont46, %invoke.cont44, %invoke.cont41, %invoke.cont39
  %68 = landingpad { i8*, i32 }
          cleanup
  %69 = extractvalue { i8*, i32 } %68, 0
  store i8* %69, i8** %exn.slot, align 8
  %70 = extractvalue { i8*, i32 } %68, 1
  store i32 %70, i32* %ehselector.slot, align 4
  call void @_ZN2cl4sycl13host_accessorIfLi1ELNS0_6access4modeE1024EED2Ev(%"class.cl::sycl::host_accessor"* nonnull align 8 dereferenceable(32) %host_accC) #3
  br label %ehcleanup

ehcleanup:                                        ; preds = %lpad40, %lpad38, %lpad33
  call void @_ZN2cl4sycl6bufferIfLi1ENS0_6detail17aligned_allocatorIcEEvED2Ev(%"class.cl::sycl::buffer"* nonnull align 8 dereferenceable(33) %bufferC) #3
  br label %ehcleanup69

ehcleanup69:                                      ; preds = %ehcleanup, %lpad29, %lpad27
  call void @_ZN2cl4sycl6bufferIfLi1ENS0_6detail17aligned_allocatorIcEEvED2Ev(%"class.cl::sycl::buffer"* nonnull align 8 dereferenceable(33) %bufferB) #3
  br label %ehcleanup70

ehcleanup70:                                      ; preds = %ehcleanup69, %lpad24, %lpad22
  call void @_ZN2cl4sycl6bufferIfLi1ENS0_6detail17aligned_allocatorIcEEvED2Ev(%"class.cl::sycl::buffer"* nonnull align 8 dereferenceable(33) %bufferA) #3
  br label %ehcleanup71

ehcleanup71:                                      ; preds = %ehcleanup70, %lpad19, %lpad17
  call void @_ZN2cl4sycl6bufferIfLi1ENS0_6detail17aligned_allocatorIcEEvED2Ev(%"class.cl::sycl::buffer"* nonnull align 8 dereferenceable(33) %bufferD) #3
  br label %ehcleanup72

ehcleanup72:                                      ; preds = %ehcleanup71, %lpad14, %lpad10
  call void @_ZN2cl4sycl5queueD2Ev(%"class.cl::sycl::queue"* nonnull align 8 dereferenceable(16) %Q) #3
  br label %ehcleanup73

ehcleanup73:                                      ; preds = %ehcleanup72, %lpad1, %lpad
  call void @_ZN2cl4sycl12gpu_selectorD2Ev(%"class.cl::sycl::gpu_selector"* nonnull align 8 dereferenceable(8) %Selector) #3
  br label %eh.resume

eh.resume:                                        ; preds = %ehcleanup73
  %exn = load i8*, i8** %exn.slot, align 8
  %sel = load i32, i32* %ehselector.slot, align 4
  %lpad.val = insertvalue { i8*, i32 } undef, i8* %exn, 0
  %lpad.val74 = insertvalue { i8*, i32 } %lpad.val, i32 %sel, 1
  resume { i8*, i32 } %lpad.val74
}

; Function Attrs: noinline nounwind optnone uwtable
define linkonce_odr dso_local void @_ZN2cl4sycl12gpu_selectorC2Ev(%"class.cl::sycl::gpu_selector"* nonnull align 8 dereferenceable(8) %this) unnamed_addr #6 comdat align 2 {
entry:
  %this.addr = alloca %"class.cl::sycl::gpu_selector"*, align 8
  store %"class.cl::sycl::gpu_selector"* %this, %"class.cl::sycl::gpu_selector"** %this.addr, align 8
  %this1 = load %"class.cl::sycl::gpu_selector"*, %"class.cl::sycl::gpu_selector"** %this.addr, align 8
  %0 = bitcast %"class.cl::sycl::gpu_selector"* %this1 to %"class.cl::sycl::device_selector"*
  call void @_ZN2cl4sycl15device_selectorC2Ev(%"class.cl::sycl::device_selector"* nonnull align 8 dereferenceable(8) %0) #3
  %1 = bitcast %"class.cl::sycl::gpu_selector"* %this1 to i32 (...)***
  store i32 (...)** bitcast (i8** getelementptr inbounds ({ [6 x i8*] }, { [6 x i8*] }* @_ZTVN2cl4sycl12gpu_selectorE, i32 0, inrange i32 0, i32 2) to i32 (...)**), i32 (...)*** %1, align 8
  ret void
}

; Function Attrs: noinline optnone uwtable
define linkonce_odr dso_local void @_ZN2cl4sycl13property_listC2IJEvEEDpT_(%"class.cl::sycl::property_list"* nonnull align 8 dereferenceable(32) %this) unnamed_addr #7 comdat align 2 personality i8* bitcast (i32 (...)* @__gxx_personality_v0 to i8*) {
entry:
  %this.addr = alloca %"class.cl::sycl::property_list"*, align 8
  %agg.tmp = alloca %"class.std::bitset", align 8
  %exn.slot = alloca i8*, align 8
  %ehselector.slot = alloca i32, align 4
  store %"class.cl::sycl::property_list"* %this, %"class.cl::sycl::property_list"** %this.addr, align 8
  %this1 = load %"class.cl::sycl::property_list"*, %"class.cl::sycl::property_list"** %this.addr, align 8
  %0 = bitcast %"class.cl::sycl::property_list"* %this1 to %"class.cl::sycl::detail::PropertyListBase"*
  call void @_ZNSt6bitsetILm32EEC2Ey(%"class.std::bitset"* nonnull align 8 dereferenceable(8) %agg.tmp, i64 0) #3
  %coerce.dive = getelementptr inbounds %"class.std::bitset", %"class.std::bitset"* %agg.tmp, i32 0, i32 0
  %coerce.dive2 = getelementptr inbounds %"struct.std::_Base_bitset", %"struct.std::_Base_bitset"* %coerce.dive, i32 0, i32 0
  %1 = load i64, i64* %coerce.dive2, align 8
  call void @_ZN2cl4sycl6detail16PropertyListBaseC2ESt6bitsetILm32EE(%"class.cl::sycl::detail::PropertyListBase"* nonnull align 8 dereferenceable(32) %0, i64 %1)
  %2 = bitcast %"class.cl::sycl::property_list"* %this1 to %"class.cl::sycl::detail::PropertyListBase"*
  invoke void @_ZN2cl4sycl6detail16PropertyListBase10ctorHelperEv(%"class.cl::sycl::detail::PropertyListBase"* nonnull align 8 dereferenceable(32) %2)
          to label %invoke.cont unwind label %lpad

invoke.cont:                                      ; preds = %entry
  ret void

lpad:                                             ; preds = %entry
  %3 = landingpad { i8*, i32 }
          cleanup
  %4 = extractvalue { i8*, i32 } %3, 0
  store i8* %4, i8** %exn.slot, align 8
  %5 = extractvalue { i8*, i32 } %3, 1
  store i32 %5, i32* %ehselector.slot, align 4
  %6 = bitcast %"class.cl::sycl::property_list"* %this1 to %"class.cl::sycl::detail::PropertyListBase"*
  call void @_ZN2cl4sycl6detail16PropertyListBaseD2Ev(%"class.cl::sycl::detail::PropertyListBase"* nonnull align 8 dereferenceable(32) %6) #3
  br label %eh.resume

eh.resume:                                        ; preds = %lpad
  %exn = load i8*, i8** %exn.slot, align 8
  %sel = load i32, i32* %ehselector.slot, align 4
  %lpad.val = insertvalue { i8*, i32 } undef, i8* %exn, 0
  %lpad.val3 = insertvalue { i8*, i32 } %lpad.val, i32 %sel, 1
  resume { i8*, i32 } %lpad.val3
}

declare dso_local i32 @__gxx_personality_v0(...)

; Function Attrs: noinline optnone uwtable
define linkonce_odr dso_local void @_ZN2cl4sycl5queueC2ERKNS0_15device_selectorERKNS0_13property_listE(%"class.cl::sycl::queue"* nonnull align 8 dereferenceable(16) %this, %"class.cl::sycl::device_selector"* nonnull align 8 dereferenceable(8) %DeviceSelector, %"class.cl::sycl::property_list"* nonnull align 8 dereferenceable(32) %PropList) unnamed_addr #7 comdat align 2 personality i8* bitcast (i32 (...)* @__gxx_personality_v0 to i8*) {
entry:
  %this.addr = alloca %"class.cl::sycl::queue"*, align 8
  %DeviceSelector.addr = alloca %"class.cl::sycl::device_selector"*, align 8
  %PropList.addr = alloca %"class.cl::sycl::property_list"*, align 8
  %ref.tmp = alloca %"class.cl::sycl::device", align 8
  %ref.tmp2 = alloca %"class.std::function.29", align 8
  %exn.slot = alloca i8*, align 8
  %ehselector.slot = alloca i32, align 4
  store %"class.cl::sycl::queue"* %this, %"class.cl::sycl::queue"** %this.addr, align 8
  store %"class.cl::sycl::device_selector"* %DeviceSelector, %"class.cl::sycl::device_selector"** %DeviceSelector.addr, align 8
  store %"class.cl::sycl::property_list"* %PropList, %"class.cl::sycl::property_list"** %PropList.addr, align 8
  %this1 = load %"class.cl::sycl::queue"*, %"class.cl::sycl::queue"** %this.addr, align 8
  %0 = load %"class.cl::sycl::device_selector"*, %"class.cl::sycl::device_selector"** %DeviceSelector.addr, align 8
  %1 = bitcast %"class.cl::sycl::device_selector"* %0 to void (%"class.cl::sycl::device"*, %"class.cl::sycl::device_selector"*)***
  %vtable = load void (%"class.cl::sycl::device"*, %"class.cl::sycl::device_selector"*)**, void (%"class.cl::sycl::device"*, %"class.cl::sycl::device_selector"*)*** %1, align 8
  %vfn = getelementptr inbounds void (%"class.cl::sycl::device"*, %"class.cl::sycl::device_selector"*)*, void (%"class.cl::sycl::device"*, %"class.cl::sycl::device_selector"*)** %vtable, i64 2
  %2 = load void (%"class.cl::sycl::device"*, %"class.cl::sycl::device_selector"*)*, void (%"class.cl::sycl::device"*, %"class.cl::sycl::device_selector"*)** %vfn, align 8
  call void %2(%"class.cl::sycl::device"* sret(%"class.cl::sycl::device") align 8 %ref.tmp, %"class.cl::sycl::device_selector"* nonnull align 8 dereferenceable(8) %0)
  call void @_ZNSt8functionIFvN2cl4sycl14exception_listEEEC2Ev(%"class.std::function.29"* nonnull align 8 dereferenceable(32) %ref.tmp2) #3
  %3 = load %"class.cl::sycl::property_list"*, %"class.cl::sycl::property_list"** %PropList.addr, align 8
  invoke void @_ZN2cl4sycl5queueC2ERKNS0_6deviceERKSt8functionIFvNS0_14exception_listEEERKNS0_13property_listE(%"class.cl::sycl::queue"* nonnull align 8 dereferenceable(16) %this1, %"class.cl::sycl::device"* nonnull align 8 dereferenceable(16) %ref.tmp, %"class.std::function.29"* nonnull align 8 dereferenceable(32) %ref.tmp2, %"class.cl::sycl::property_list"* nonnull align 8 dereferenceable(32) %3)
          to label %invoke.cont unwind label %lpad

invoke.cont:                                      ; preds = %entry
  call void @_ZNSt8functionIFvN2cl4sycl14exception_listEEED2Ev(%"class.std::function.29"* nonnull align 8 dereferenceable(32) %ref.tmp2) #3
  call void @_ZN2cl4sycl6deviceD2Ev(%"class.cl::sycl::device"* nonnull align 8 dereferenceable(16) %ref.tmp) #3
  ret void

lpad:                                             ; preds = %entry
  %4 = landingpad { i8*, i32 }
          cleanup
  %5 = extractvalue { i8*, i32 } %4, 0
  store i8* %5, i8** %exn.slot, align 8
  %6 = extractvalue { i8*, i32 } %4, 1
  store i32 %6, i32* %ehselector.slot, align 4
  call void @_ZNSt8functionIFvN2cl4sycl14exception_listEEED2Ev(%"class.std::function.29"* nonnull align 8 dereferenceable(32) %ref.tmp2) #3
  call void @_ZN2cl4sycl6deviceD2Ev(%"class.cl::sycl::device"* nonnull align 8 dereferenceable(16) %ref.tmp) #3
  br label %eh.resume

eh.resume:                                        ; preds = %lpad
  %exn = load i8*, i8** %exn.slot, align 8
  %sel = load i32, i32* %ehselector.slot, align 4
  %lpad.val = insertvalue { i8*, i32 } undef, i8* %exn, 0
  %lpad.val3 = insertvalue { i8*, i32 } %lpad.val, i32 %sel, 1
  resume { i8*, i32 } %lpad.val3
}

; Function Attrs: noinline nounwind optnone uwtable
define linkonce_odr dso_local void @_ZN2cl4sycl13property_listD2Ev(%"class.cl::sycl::property_list"* nonnull align 8 dereferenceable(32) %this) unnamed_addr #6 comdat align 2 {
entry:
  %this.addr = alloca %"class.cl::sycl::property_list"*, align 8
  store %"class.cl::sycl::property_list"* %this, %"class.cl::sycl::property_list"** %this.addr, align 8
  %this1 = load %"class.cl::sycl::property_list"*, %"class.cl::sycl::property_list"** %this.addr, align 8
  %0 = bitcast %"class.cl::sycl::property_list"* %this1 to %"class.cl::sycl::detail::PropertyListBase"*
  call void @_ZN2cl4sycl6detail16PropertyListBaseD2Ev(%"class.cl::sycl::detail::PropertyListBase"* nonnull align 8 dereferenceable(32) %0) #3
  ret void
}

; Function Attrs: nounwind
declare dso_local noalias align 16 i8* @malloc(i64) #2

; Function Attrs: noinline nounwind optnone uwtable
define linkonce_odr dso_local void @_ZN2cl4sycl5rangeILi1EEC2ILi1EEENSt9enable_ifIXeqT_Li1EEmE4typeE(%"class.cl::sycl::range"* nonnull align 8 dereferenceable(8) %this, i64 %dim0) unnamed_addr #6 comdat align 2 {
entry:
  %this.addr = alloca %"class.cl::sycl::range"*, align 8
  %dim0.addr = alloca i64, align 8
  store %"class.cl::sycl::range"* %this, %"class.cl::sycl::range"** %this.addr, align 8
  store i64 %dim0, i64* %dim0.addr, align 8
  %this1 = load %"class.cl::sycl::range"*, %"class.cl::sycl::range"** %this.addr, align 8
  %0 = bitcast %"class.cl::sycl::range"* %this1 to %"class.cl::sycl::detail::array"*
  %1 = load i64, i64* %dim0.addr, align 8
  call void @_ZN2cl4sycl6detail5arrayILi1EEC2ILi1EEENSt9enable_ifIXeqT_Li1EEmE4typeE(%"class.cl::sycl::detail::array"* nonnull align 8 dereferenceable(8) %0, i64 %1)
  ret void
}

; Function Attrs: noinline optnone uwtable
define linkonce_odr dso_local void @_ZN2cl4sycl6bufferIfLi1ENS0_6detail17aligned_allocatorIcEEvEC2EPfRKNS0_5rangeILi1EEERKNS0_13property_listE(%"class.cl::sycl::buffer"* nonnull align 8 dereferenceable(33) %this, float* %hostData, %"class.cl::sycl::range"* nonnull align 8 dereferenceable(8) %bufferRange, %"class.cl::sycl::property_list"* nonnull align 8 dereferenceable(32) %propList) unnamed_addr #7 comdat align 2 personality i8* bitcast (i32 (...)* @__gxx_personality_v0 to i8*) {
entry:
  %this.addr = alloca %"class.cl::sycl::buffer"*, align 8
  %hostData.addr = alloca float*, align 8
  %bufferRange.addr = alloca %"class.cl::sycl::range"*, align 8
  %propList.addr = alloca %"class.cl::sycl::property_list"*, align 8
  %ref.tmp = alloca %"class.std::shared_ptr.3", align 8
  %ref.tmp2 = alloca i64, align 8
  %ref.tmp3 = alloca i64, align 8
  %exn.slot = alloca i8*, align 8
  %ehselector.slot = alloca i32, align 4
  %ref.tmp5 = alloca %"class.std::unique_ptr.36", align 8
  store %"class.cl::sycl::buffer"* %this, %"class.cl::sycl::buffer"** %this.addr, align 8
  store float* %hostData, float** %hostData.addr, align 8
  store %"class.cl::sycl::range"* %bufferRange, %"class.cl::sycl::range"** %bufferRange.addr, align 8
  store %"class.cl::sycl::property_list"* %propList, %"class.cl::sycl::property_list"** %propList.addr, align 8
  %this1 = load %"class.cl::sycl::buffer"*, %"class.cl::sycl::buffer"** %this.addr, align 8
  %impl = getelementptr inbounds %"class.cl::sycl::buffer", %"class.cl::sycl::buffer"* %this1, i32 0, i32 0
  call void @_ZNSt10shared_ptrIN2cl4sycl6detail11buffer_implEEC2Ev(%"class.std::shared_ptr.3"* nonnull align 8 dereferenceable(16) %impl) #3
  %Range = getelementptr inbounds %"class.cl::sycl::buffer", %"class.cl::sycl::buffer"* %this1, i32 0, i32 1
  %0 = load %"class.cl::sycl::range"*, %"class.cl::sycl::range"** %bufferRange.addr, align 8
  %1 = bitcast %"class.cl::sycl::range"* %Range to i8*
  %2 = bitcast %"class.cl::sycl::range"* %0 to i8*
  call void @llvm.memcpy.p0i8.p0i8.i64(i8* align 8 %1, i8* align 8 %2, i64 8, i1 false)
  %OffsetInBytes = getelementptr inbounds %"class.cl::sycl::buffer", %"class.cl::sycl::buffer"* %this1, i32 0, i32 2
  store i64 0, i64* %OffsetInBytes, align 8
  %IsSubBuffer = getelementptr inbounds %"class.cl::sycl::buffer", %"class.cl::sycl::buffer"* %this1, i32 0, i32 3
  store i8 0, i8* %IsSubBuffer, align 8
  %call = call i64 @_ZNK2cl4sycl6bufferIfLi1ENS0_6detail17aligned_allocatorIcEEvE4sizeEv(%"class.cl::sycl::buffer"* nonnull align 8 dereferenceable(33) %this1) #3
  %mul = mul i64 %call, 4
  store i64 %mul, i64* %ref.tmp2, align 8
  %call4 = invoke i64 @_ZN2cl4sycl6detail17getNextPowerOfTwoEm(i64 4)
          to label %invoke.cont unwind label %lpad

invoke.cont:                                      ; preds = %entry
  store i64 %call4, i64* %ref.tmp3, align 8
  %3 = load %"class.cl::sycl::property_list"*, %"class.cl::sycl::property_list"** %propList.addr, align 8
  invoke void @_ZN2cl4sycl15make_unique_ptrINS0_6detail25SYCLMemObjAllocatorHolderINS2_17aligned_allocatorIcEEEEJEEESt10unique_ptrIT_St14default_deleteIS8_EEDpOT0_(%"class.std::unique_ptr.36"* sret(%"class.std::unique_ptr.36") align 8 %ref.tmp5)
          to label %invoke.cont6 unwind label %lpad

invoke.cont6:                                     ; preds = %invoke.cont
  invoke void @_ZSt11make_sharedIN2cl4sycl6detail11buffer_implEJRPfmmRKNS1_13property_listESt10unique_ptrINS2_25SYCLMemObjAllocatorHolderINS2_17aligned_allocatorIcEEEESt14default_deleteISD_EEEESt10shared_ptrIT_EDpOT0_(%"class.std::shared_ptr.3"* sret(%"class.std::shared_ptr.3") align 8 %ref.tmp, float** nonnull align 8 dereferenceable(8) %hostData.addr, i64* nonnull align 8 dereferenceable(8) %ref.tmp2, i64* nonnull align 8 dereferenceable(8) %ref.tmp3, %"class.cl::sycl::property_list"* nonnull align 8 dereferenceable(32) %3, %"class.std::unique_ptr.36"* nonnull align 8 dereferenceable(8) %ref.tmp5)
          to label %invoke.cont8 unwind label %lpad7

invoke.cont8:                                     ; preds = %invoke.cont6
  %impl9 = getelementptr inbounds %"class.cl::sycl::buffer", %"class.cl::sycl::buffer"* %this1, i32 0, i32 0
  %call10 = call nonnull align 8 dereferenceable(16) %"class.std::shared_ptr.3"* @_ZNSt10shared_ptrIN2cl4sycl6detail11buffer_implEEaSEOS4_(%"class.std::shared_ptr.3"* nonnull align 8 dereferenceable(16) %impl9, %"class.std::shared_ptr.3"* nonnull align 8 dereferenceable(16) %ref.tmp) #3
  call void @_ZNSt10shared_ptrIN2cl4sycl6detail11buffer_implEED2Ev(%"class.std::shared_ptr.3"* nonnull align 8 dereferenceable(16) %ref.tmp) #3
  call void @_ZNSt10unique_ptrIN2cl4sycl6detail25SYCLMemObjAllocatorHolderINS2_17aligned_allocatorIcEEEESt14default_deleteIS6_EED2Ev(%"class.std::unique_ptr.36"* nonnull align 8 dereferenceable(8) %ref.tmp5) #3
  ret void

lpad:                                             ; preds = %invoke.cont, %entry
  %4 = landingpad { i8*, i32 }
          cleanup
  %5 = extractvalue { i8*, i32 } %4, 0
  store i8* %5, i8** %exn.slot, align 8
  %6 = extractvalue { i8*, i32 } %4, 1
  store i32 %6, i32* %ehselector.slot, align 4
  br label %ehcleanup

lpad7:                                            ; preds = %invoke.cont6
  %7 = landingpad { i8*, i32 }
          cleanup
  %8 = extractvalue { i8*, i32 } %7, 0
  store i8* %8, i8** %exn.slot, align 8
  %9 = extractvalue { i8*, i32 } %7, 1
  store i32 %9, i32* %ehselector.slot, align 4
  call void @_ZNSt10unique_ptrIN2cl4sycl6detail25SYCLMemObjAllocatorHolderINS2_17aligned_allocatorIcEEEESt14default_deleteIS6_EED2Ev(%"class.std::unique_ptr.36"* nonnull align 8 dereferenceable(8) %ref.tmp5) #3
  br label %ehcleanup

ehcleanup:                                        ; preds = %lpad7, %lpad
  call void @_ZNSt10shared_ptrIN2cl4sycl6detail11buffer_implEED2Ev(%"class.std::shared_ptr.3"* nonnull align 8 dereferenceable(16) %impl) #3
  br label %eh.resume

eh.resume:                                        ; preds = %ehcleanup
  %exn = load i8*, i8** %exn.slot, align 8
  %sel = load i32, i32* %ehselector.slot, align 4
  %lpad.val = insertvalue { i8*, i32 } undef, i8* %exn, 0
  %lpad.val11 = insertvalue { i8*, i32 } %lpad.val, i32 %sel, 1
  resume { i8*, i32 } %lpad.val11
}

; Function Attrs: noinline optnone uwtable mustprogress
define internal void @_ZN2cl4sycl5queue6submitIZ4mainEUlRNS0_7handlerEE_EENS0_5eventET_RKNS0_6detail13code_locationE(%"class.cl::sycl::event"* noalias sret(%"class.cl::sycl::event") align 8 %agg.result, %"class.cl::sycl::queue"* nonnull align 8 dereferenceable(16) %this, %class.anon* byval(%class.anon) align 8 %CGF, %"struct.cl::sycl::detail::code_location"* nonnull align 8 dereferenceable(32) %CodeLoc) #8 align 2 personality i8* bitcast (i32 (...)* @__gxx_personality_v0 to i8*) {
entry:
  %result.ptr = alloca i8*, align 8
  %this.addr = alloca %"class.cl::sycl::queue"*, align 8
  %CodeLoc.addr = alloca %"struct.cl::sycl::detail::code_location"*, align 8
  %agg.tmp = alloca %"class.std::function.58", align 8
  %agg.tmp2 = alloca %class.anon, align 8
  %exn.slot = alloca i8*, align 8
  %ehselector.slot = alloca i32, align 4
  %0 = bitcast %"class.cl::sycl::event"* %agg.result to i8*
  store i8* %0, i8** %result.ptr, align 8
  store %"class.cl::sycl::queue"* %this, %"class.cl::sycl::queue"** %this.addr, align 8
  store %"struct.cl::sycl::detail::code_location"* %CodeLoc, %"struct.cl::sycl::detail::code_location"** %CodeLoc.addr, align 8
  %this1 = load %"class.cl::sycl::queue"*, %"class.cl::sycl::queue"** %this.addr, align 8
  %1 = bitcast %class.anon* %agg.tmp2 to i8*
  %2 = bitcast %class.anon* %CGF to i8*
  call void @llvm.memcpy.p0i8.p0i8.i64(i8* align 8 %1, i8* align 8 %2, i64 32, i1 false)
  call void @_ZNSt8functionIFvRN2cl4sycl7handlerEEEC2IZ4mainEUlS3_E_vvEET_(%"class.std::function.58"* nonnull align 8 dereferenceable(32) %agg.tmp, %class.anon* byval(%class.anon) align 8 %agg.tmp2)
  %3 = load %"struct.cl::sycl::detail::code_location"*, %"struct.cl::sycl::detail::code_location"** %CodeLoc.addr, align 8
  invoke void @_ZN2cl4sycl5queue11submit_implESt8functionIFvRNS0_7handlerEEERKNS0_6detail13code_locationE(%"class.cl::sycl::event"* sret(%"class.cl::sycl::event") align 8 %agg.result, %"class.cl::sycl::queue"* nonnull align 8 dereferenceable(16) %this1, %"class.std::function.58"* %agg.tmp, %"struct.cl::sycl::detail::code_location"* nonnull align 8 dereferenceable(32) %3)
          to label %invoke.cont unwind label %lpad

invoke.cont:                                      ; preds = %entry
  call void @_ZNSt8functionIFvRN2cl4sycl7handlerEEED2Ev(%"class.std::function.58"* nonnull align 8 dereferenceable(32) %agg.tmp) #3
  ret void

lpad:                                             ; preds = %entry
  %4 = landingpad { i8*, i32 }
          cleanup
  %5 = extractvalue { i8*, i32 } %4, 0
  store i8* %5, i8** %exn.slot, align 8
  %6 = extractvalue { i8*, i32 } %4, 1
  store i32 %6, i32* %ehselector.slot, align 4
  call void @_ZNSt8functionIFvRN2cl4sycl7handlerEEED2Ev(%"class.std::function.58"* nonnull align 8 dereferenceable(32) %agg.tmp) #3
  br label %eh.resume

eh.resume:                                        ; preds = %lpad
  %exn = load i8*, i8** %exn.slot, align 8
  %sel = load i32, i32* %ehselector.slot, align 4
  %lpad.val = insertvalue { i8*, i32 } undef, i8* %exn, 0
  %lpad.val3 = insertvalue { i8*, i32 } %lpad.val, i32 %sel, 1
  resume { i8*, i32 } %lpad.val3
}

; Function Attrs: noinline nounwind optnone uwtable mustprogress
define linkonce_odr dso_local void @_ZN2cl4sycl6detail13code_location7currentEPKcS4_mm(%"struct.cl::sycl::detail::code_location"* noalias sret(%"struct.cl::sycl::detail::code_location") align 8 %agg.result, i8* %fileName, i8* %funcName, i64 %lineNo, i64 %columnNo) #4 comdat align 2 {
entry:
  %fileName.addr = alloca i8*, align 8
  %funcName.addr = alloca i8*, align 8
  %lineNo.addr = alloca i64, align 8
  %columnNo.addr = alloca i64, align 8
  store i8* %fileName, i8** %fileName.addr, align 8
  store i8* %funcName, i8** %funcName.addr, align 8
  store i64 %lineNo, i64* %lineNo.addr, align 8
  store i64 %columnNo, i64* %columnNo.addr, align 8
  %0 = load i8*, i8** %fileName.addr, align 8
  %1 = load i8*, i8** %funcName.addr, align 8
  %2 = load i64, i64* %lineNo.addr, align 8
  %conv = trunc i64 %2 to i32
  %3 = load i64, i64* %columnNo.addr, align 8
  %conv1 = trunc i64 %3 to i32
  call void @_ZN2cl4sycl6detail13code_locationC2EPKcS4_ii(%"struct.cl::sycl::detail::code_location"* nonnull align 8 dereferenceable(32) %agg.result, i8* %0, i8* %1, i32 %conv, i32 %conv1) #3
  ret void
}

; Function Attrs: noinline nounwind optnone uwtable
define linkonce_odr dso_local void @_ZN2cl4sycl5eventD2Ev(%"class.cl::sycl::event"* nonnull align 8 dereferenceable(16) %this) unnamed_addr #6 comdat align 2 {
entry:
  %this.addr = alloca %"class.cl::sycl::event"*, align 8
  store %"class.cl::sycl::event"* %this, %"class.cl::sycl::event"** %this.addr, align 8
  %this1 = load %"class.cl::sycl::event"*, %"class.cl::sycl::event"** %this.addr, align 8
  %impl = getelementptr inbounds %"class.cl::sycl::event", %"class.cl::sycl::event"* %this1, i32 0, i32 0
  call void @_ZNSt10shared_ptrIN2cl4sycl6detail10event_implEED2Ev(%"class.std::shared_ptr.11"* nonnull align 8 dereferenceable(16) %impl) #3
  ret void
}

; Function Attrs: noinline optnone uwtable
define linkonce_odr dso_local void @_ZN2cl4sycl13host_accessorIfLi1ELNS0_6access4modeE1024EEC2IfLi1ENS0_6detail17aligned_allocatorIcEEvEERNS0_6bufferIfLi1ET1_vEENS0_10mode_tag_tILS3_1024EEERKNS0_13property_listE(%"class.cl::sycl::host_accessor"* nonnull align 8 dereferenceable(32) %this, %"class.cl::sycl::buffer"* nonnull align 8 dereferenceable(33) %BufferRef, %"class.cl::sycl::property_list"* nonnull align 8 dereferenceable(32) %PropertyList) unnamed_addr #7 comdat align 2 {
entry:
  %0 = alloca %"struct.cl::sycl::mode_tag_t", align 1
  %this.addr = alloca %"class.cl::sycl::host_accessor"*, align 8
  %BufferRef.addr = alloca %"class.cl::sycl::buffer"*, align 8
  %PropertyList.addr = alloca %"class.cl::sycl::property_list"*, align 8
  store %"class.cl::sycl::host_accessor"* %this, %"class.cl::sycl::host_accessor"** %this.addr, align 8
  store %"class.cl::sycl::buffer"* %BufferRef, %"class.cl::sycl::buffer"** %BufferRef.addr, align 8
  store %"class.cl::sycl::property_list"* %PropertyList, %"class.cl::sycl::property_list"** %PropertyList.addr, align 8
  %this1 = load %"class.cl::sycl::host_accessor"*, %"class.cl::sycl::host_accessor"** %this.addr, align 8
  %1 = load %"class.cl::sycl::buffer"*, %"class.cl::sycl::buffer"** %BufferRef.addr, align 8
  %2 = load %"class.cl::sycl::property_list"*, %"class.cl::sycl::property_list"** %PropertyList.addr, align 8
  call void @_ZN2cl4sycl13host_accessorIfLi1ELNS0_6access4modeE1024EEC2IfLi1ENS0_6detail17aligned_allocatorIcEEvEERNS0_6bufferIT_XT0_ET1_NSt9enable_ifIXaagtT0_Li0EleT0_Li3EEvE4typeEEERKNS0_13property_listE(%"class.cl::sycl::host_accessor"* nonnull align 8 dereferenceable(32) %this1, %"class.cl::sycl::buffer"* nonnull align 8 dereferenceable(33) %1, %"class.cl::sycl::property_list"* nonnull align 8 dereferenceable(32) %2)
  ret void
}

declare dso_local nonnull align 8 dereferenceable(8) %"class.std::basic_ostream"* @_ZStlsISt11char_traitsIcEERSt13basic_ostreamIcT_ES5_PKc(%"class.std::basic_ostream"* nonnull align 8 dereferenceable(8), i8*) #1

declare dso_local nonnull align 8 dereferenceable(8) %"class.std::basic_ostream"* @_ZNSolsEf(%"class.std::basic_ostream"* nonnull align 8 dereferenceable(8), float) #1

; Function Attrs: noinline optnone uwtable mustprogress
define linkonce_odr dso_local nonnull align 4 dereferenceable(4) float* @_ZNK2cl4sycl8accessorIfLi1ELNS0_6access4modeE1024ELNS2_6targetE2018ELNS2_11placeholderE0ENS0_6ONEAPI22accessor_property_listIJEEEEixILi1EEENSt9enable_ifIXaagtT_Li0EL_ZNS0_6detail15accessor_commonIfLi1ELS3_1024ELS4_2018ELS5_0ES8_E16IsAccessReadOnlyEEERKfE4typeENS0_2idILi1EEE(%"class.cl::sycl::accessor"* nonnull align 8 dereferenceable(32) %this, i64 %Index.coerce) #8 comdat align 2 {
entry:
  %Index = alloca %"class.cl::sycl::id.25", align 8
  %this.addr = alloca %"class.cl::sycl::accessor"*, align 8
  %LinearIndex = alloca i64, align 8
  %agg.tmp = alloca %"class.cl::sycl::id.25", align 8
  %coerce.dive = getelementptr inbounds %"class.cl::sycl::id.25", %"class.cl::sycl::id.25"* %Index, i32 0, i32 0
  %coerce.dive1 = getelementptr inbounds %"class.cl::sycl::detail::array", %"class.cl::sycl::detail::array"* %coerce.dive, i32 0, i32 0
  %0 = bitcast [1 x i64]* %coerce.dive1 to i64*
  store i64 %Index.coerce, i64* %0, align 8
  store %"class.cl::sycl::accessor"* %this, %"class.cl::sycl::accessor"** %this.addr, align 8
  %this2 = load %"class.cl::sycl::accessor"*, %"class.cl::sycl::accessor"** %this.addr, align 8
  %1 = bitcast %"class.cl::sycl::id.25"* %agg.tmp to i8*
  %2 = bitcast %"class.cl::sycl::id.25"* %Index to i8*
  call void @llvm.memcpy.p0i8.p0i8.i64(i8* align 8 %1, i8* align 8 %2, i64 8, i1 false)
  %coerce.dive3 = getelementptr inbounds %"class.cl::sycl::id.25", %"class.cl::sycl::id.25"* %agg.tmp, i32 0, i32 0
  %coerce.dive4 = getelementptr inbounds %"class.cl::sycl::detail::array", %"class.cl::sycl::detail::array"* %coerce.dive3, i32 0, i32 0
  %3 = bitcast [1 x i64]* %coerce.dive4 to i64*
  %4 = load i64, i64* %3, align 8
  %call = call i64 @_ZNK2cl4sycl8accessorIfLi1ELNS0_6access4modeE1024ELNS2_6targetE2018ELNS2_11placeholderE0ENS0_6ONEAPI22accessor_property_listIJEEEE14getLinearIndexILi1EEEmNS0_2idIXT_EEE(%"class.cl::sycl::accessor"* nonnull align 8 dereferenceable(32) %this2, i64 %4)
  store i64 %call, i64* %LinearIndex, align 8
  %call5 = call float* @_ZNK2cl4sycl8accessorIfLi1ELNS0_6access4modeE1024ELNS2_6targetE2018ELNS2_11placeholderE0ENS0_6ONEAPI22accessor_property_listIJEEEE15getQualifiedPtrEv(%"class.cl::sycl::accessor"* nonnull align 8 dereferenceable(32) %this2)
  %5 = load i64, i64* %LinearIndex, align 8
  %arrayidx = getelementptr inbounds float, float* %call5, i64 %5
  ret float* %arrayidx
}

; Function Attrs: noinline optnone uwtable
define linkonce_odr dso_local void @_ZN2cl4sycl2idILi1EEC2ILi1EEENSt9enable_ifIXeqT_Li1EEmE4typeE(%"class.cl::sycl::id.25"* nonnull align 8 dereferenceable(8) %this, i64 %dim0) unnamed_addr #7 comdat align 2 {
entry:
  %this.addr = alloca %"class.cl::sycl::id.25"*, align 8
  %dim0.addr = alloca i64, align 8
  store %"class.cl::sycl::id.25"* %this, %"class.cl::sycl::id.25"** %this.addr, align 8
  store i64 %dim0, i64* %dim0.addr, align 8
  %this1 = load %"class.cl::sycl::id.25"*, %"class.cl::sycl::id.25"** %this.addr, align 8
  %0 = bitcast %"class.cl::sycl::id.25"* %this1 to %"class.cl::sycl::detail::array"*
  %1 = load i64, i64* %dim0.addr, align 8
  call void @_ZN2cl4sycl6detail5arrayILi1EEC2ILi1EEENSt9enable_ifIXeqT_Li1EEmE4typeE(%"class.cl::sycl::detail::array"* nonnull align 8 dereferenceable(8) %0, i64 %1)
  ret void
}

declare dso_local nonnull align 8 dereferenceable(8) %"class.std::basic_ostream"* @_ZNSolsEPFRSoS_E(%"class.std::basic_ostream"* nonnull align 8 dereferenceable(8), %"class.std::basic_ostream"* (%"class.std::basic_ostream"*)*) #1

declare dso_local nonnull align 8 dereferenceable(8) %"class.std::basic_ostream"* @_ZSt4endlIcSt11char_traitsIcEERSt13basic_ostreamIT_T0_ES6_(%"class.std::basic_ostream"* nonnull align 8 dereferenceable(8)) #1

declare dso_local nonnull align 8 dereferenceable(8) %"class.std::basic_ostream"* @_ZNSolsEx(%"class.std::basic_ostream"* nonnull align 8 dereferenceable(8), i64) #1

; Function Attrs: noinline nounwind optnone uwtable
define linkonce_odr dso_local void @_ZN2cl4sycl13host_accessorIfLi1ELNS0_6access4modeE1024EED2Ev(%"class.cl::sycl::host_accessor"* nonnull align 8 dereferenceable(32) %this) unnamed_addr #6 comdat align 2 {
entry:
  %this.addr = alloca %"class.cl::sycl::host_accessor"*, align 8
  store %"class.cl::sycl::host_accessor"* %this, %"class.cl::sycl::host_accessor"** %this.addr, align 8
  %this1 = load %"class.cl::sycl::host_accessor"*, %"class.cl::sycl::host_accessor"** %this.addr, align 8
  %0 = bitcast %"class.cl::sycl::host_accessor"* %this1 to %"class.cl::sycl::accessor"*
  call void @_ZN2cl4sycl8accessorIfLi1ELNS0_6access4modeE1024ELNS2_6targetE2018ELNS2_11placeholderE0ENS0_6ONEAPI22accessor_property_listIJEEEED2Ev(%"class.cl::sycl::accessor"* nonnull align 8 dereferenceable(32) %0) #3
  ret void
}

; Function Attrs: noinline nounwind optnone uwtable
define linkonce_odr dso_local void @_ZN2cl4sycl6bufferIfLi1ENS0_6detail17aligned_allocatorIcEEvED2Ev(%"class.cl::sycl::buffer"* nonnull align 8 dereferenceable(33) %this) unnamed_addr #6 comdat align 2 {
entry:
  %this.addr = alloca %"class.cl::sycl::buffer"*, align 8
  store %"class.cl::sycl::buffer"* %this, %"class.cl::sycl::buffer"** %this.addr, align 8
  %this1 = load %"class.cl::sycl::buffer"*, %"class.cl::sycl::buffer"** %this.addr, align 8
  %impl = getelementptr inbounds %"class.cl::sycl::buffer", %"class.cl::sycl::buffer"* %this1, i32 0, i32 0
  call void @_ZNSt10shared_ptrIN2cl4sycl6detail11buffer_implEED2Ev(%"class.std::shared_ptr.3"* nonnull align 8 dereferenceable(16) %impl) #3
  ret void
}

; Function Attrs: noinline nounwind optnone uwtable
define linkonce_odr dso_local void @_ZN2cl4sycl5queueD2Ev(%"class.cl::sycl::queue"* nonnull align 8 dereferenceable(16) %this) unnamed_addr #6 comdat align 2 {
entry:
  %this.addr = alloca %"class.cl::sycl::queue"*, align 8
  store %"class.cl::sycl::queue"* %this, %"class.cl::sycl::queue"** %this.addr, align 8
  %this1 = load %"class.cl::sycl::queue"*, %"class.cl::sycl::queue"** %this.addr, align 8
  %impl = getelementptr inbounds %"class.cl::sycl::queue", %"class.cl::sycl::queue"* %this1, i32 0, i32 0
  call void @_ZNSt10shared_ptrIN2cl4sycl6detail10queue_implEED2Ev(%"class.std::shared_ptr"* nonnull align 8 dereferenceable(16) %impl) #3
  ret void
}

; Function Attrs: noinline nounwind optnone uwtable
define linkonce_odr dso_local void @_ZN2cl4sycl12gpu_selectorD2Ev(%"class.cl::sycl::gpu_selector"* nonnull align 8 dereferenceable(8) %this) unnamed_addr #6 comdat align 2 {
entry:
  %this.addr = alloca %"class.cl::sycl::gpu_selector"*, align 8
  store %"class.cl::sycl::gpu_selector"* %this, %"class.cl::sycl::gpu_selector"** %this.addr, align 8
  %this1 = load %"class.cl::sycl::gpu_selector"*, %"class.cl::sycl::gpu_selector"** %this.addr, align 8
  %0 = bitcast %"class.cl::sycl::gpu_selector"* %this1 to %"class.cl::sycl::device_selector"*
  call void @_ZN2cl4sycl15device_selectorD2Ev(%"class.cl::sycl::device_selector"* nonnull align 8 dereferenceable(8) %0) #3
  ret void
}

; Function Attrs: noinline nounwind optnone uwtable
define linkonce_odr dso_local void @_ZN2cl4sycl15device_selectorC2Ev(%"class.cl::sycl::device_selector"* nonnull align 8 dereferenceable(8) %this) unnamed_addr #6 comdat align 2 {
entry:
  %this.addr = alloca %"class.cl::sycl::device_selector"*, align 8
  store %"class.cl::sycl::device_selector"* %this, %"class.cl::sycl::device_selector"** %this.addr, align 8
  %this1 = load %"class.cl::sycl::device_selector"*, %"class.cl::sycl::device_selector"** %this.addr, align 8
  %0 = bitcast %"class.cl::sycl::device_selector"* %this1 to i32 (...)***
  store i32 (...)** bitcast (i8** getelementptr inbounds ({ [6 x i8*] }, { [6 x i8*] }* @_ZTVN2cl4sycl15device_selectorE, i32 0, inrange i32 0, i32 2) to i32 (...)**), i32 (...)*** %0, align 8
  ret void
}

; Function Attrs: noinline nounwind optnone uwtable
define linkonce_odr dso_local void @_ZNSt8functionIFvN2cl4sycl14exception_listEEEC2Ev(%"class.std::function.29"* nonnull align 8 dereferenceable(32) %this) unnamed_addr #6 comdat align 2 personality i8* bitcast (i32 (...)* @__gxx_personality_v0 to i8*) {
entry:
  %this.addr = alloca %"class.std::function.29"*, align 8
  store %"class.std::function.29"* %this, %"class.std::function.29"** %this.addr, align 8
  %this1 = load %"class.std::function.29"*, %"class.std::function.29"** %this.addr, align 8
  %0 = bitcast %"class.std::function.29"* %this1 to %"struct.std::_Maybe_unary_or_binary_function.30"*
  %1 = bitcast %"class.std::function.29"* %this1 to %"class.std::_Function_base"*
  invoke void @_ZNSt14_Function_baseC2Ev(%"class.std::_Function_base"* nonnull align 8 dereferenceable(24) %1)
          to label %invoke.cont unwind label %terminate.lpad

invoke.cont:                                      ; preds = %entry
  ret void

terminate.lpad:                                   ; preds = %entry
  %2 = landingpad { i8*, i32 }
          catch i8* null
  %3 = extractvalue { i8*, i32 } %2, 0
  call void @__clang_call_terminate(i8* %3) #19
  unreachable
}

declare dso_local void @_ZN2cl4sycl5queueC2ERKNS0_6deviceERKSt8functionIFvNS0_14exception_listEEERKNS0_13property_listE(%"class.cl::sycl::queue"* nonnull align 8 dereferenceable(16), %"class.cl::sycl::device"* nonnull align 8 dereferenceable(16), %"class.std::function.29"* nonnull align 8 dereferenceable(32), %"class.cl::sycl::property_list"* nonnull align 8 dereferenceable(32)) unnamed_addr #1

; Function Attrs: noinline nounwind optnone uwtable
define linkonce_odr dso_local void @_ZNSt8functionIFvN2cl4sycl14exception_listEEED2Ev(%"class.std::function.29"* nonnull align 8 dereferenceable(32) %this) unnamed_addr #6 comdat align 2 {
entry:
  %this.addr = alloca %"class.std::function.29"*, align 8
  store %"class.std::function.29"* %this, %"class.std::function.29"** %this.addr, align 8
  %this1 = load %"class.std::function.29"*, %"class.std::function.29"** %this.addr, align 8
  %0 = bitcast %"class.std::function.29"* %this1 to %"class.std::_Function_base"*
  call void @_ZNSt14_Function_baseD2Ev(%"class.std::_Function_base"* nonnull align 8 dereferenceable(24) %0) #3
  ret void
}

; Function Attrs: noinline nounwind optnone uwtable
define linkonce_odr dso_local void @_ZN2cl4sycl6deviceD2Ev(%"class.cl::sycl::device"* nonnull align 8 dereferenceable(16) %this) unnamed_addr #6 comdat align 2 {
entry:
  %this.addr = alloca %"class.cl::sycl::device"*, align 8
  store %"class.cl::sycl::device"* %this, %"class.cl::sycl::device"** %this.addr, align 8
  %this1 = load %"class.cl::sycl::device"*, %"class.cl::sycl::device"** %this.addr, align 8
  %impl = getelementptr inbounds %"class.cl::sycl::device", %"class.cl::sycl::device"* %this1, i32 0, i32 0
  call void @_ZNSt10shared_ptrIN2cl4sycl6detail11device_implEED2Ev(%"class.std::shared_ptr.26"* nonnull align 8 dereferenceable(16) %impl) #3
  ret void
}

; Function Attrs: noinline nounwind optnone uwtable
define linkonce_odr dso_local void @_ZNSt14_Function_baseC2Ev(%"class.std::_Function_base"* nonnull align 8 dereferenceable(24) %this) unnamed_addr #6 comdat align 2 {
entry:
  %this.addr = alloca %"class.std::_Function_base"*, align 8
  store %"class.std::_Function_base"* %this, %"class.std::_Function_base"** %this.addr, align 8
  %this1 = load %"class.std::_Function_base"*, %"class.std::_Function_base"** %this.addr, align 8
  %_M_functor = getelementptr inbounds %"class.std::_Function_base", %"class.std::_Function_base"* %this1, i32 0, i32 0
  %_M_manager = getelementptr inbounds %"class.std::_Function_base", %"class.std::_Function_base"* %this1, i32 0, i32 1
  store i1 (%"union.std::_Any_data"*, %"union.std::_Any_data"*, i32)* null, i1 (%"union.std::_Any_data"*, %"union.std::_Any_data"*, i32)** %_M_manager, align 8
  ret void
}

; Function Attrs: noinline noreturn nounwind
define linkonce_odr hidden void @__clang_call_terminate(i8* %0) #9 comdat {
  %2 = call i8* @__cxa_begin_catch(i8* %0) #3
  call void @_ZSt9terminatev() #19
  unreachable
}

declare dso_local i8* @__cxa_begin_catch(i8*)

declare dso_local void @_ZSt9terminatev()

; Function Attrs: noinline nounwind optnone uwtable
define linkonce_odr dso_local void @_ZNSt14_Function_baseD2Ev(%"class.std::_Function_base"* nonnull align 8 dereferenceable(24) %this) unnamed_addr #6 comdat align 2 personality i8* bitcast (i32 (...)* @__gxx_personality_v0 to i8*) {
entry:
  %this.addr = alloca %"class.std::_Function_base"*, align 8
  store %"class.std::_Function_base"* %this, %"class.std::_Function_base"** %this.addr, align 8
  %this1 = load %"class.std::_Function_base"*, %"class.std::_Function_base"** %this.addr, align 8
  %_M_manager = getelementptr inbounds %"class.std::_Function_base", %"class.std::_Function_base"* %this1, i32 0, i32 1
  %0 = load i1 (%"union.std::_Any_data"*, %"union.std::_Any_data"*, i32)*, i1 (%"union.std::_Any_data"*, %"union.std::_Any_data"*, i32)** %_M_manager, align 8
  %tobool = icmp ne i1 (%"union.std::_Any_data"*, %"union.std::_Any_data"*, i32)* %0, null
  br i1 %tobool, label %if.then, label %if.end

if.then:                                          ; preds = %entry
  %_M_manager2 = getelementptr inbounds %"class.std::_Function_base", %"class.std::_Function_base"* %this1, i32 0, i32 1
  %1 = load i1 (%"union.std::_Any_data"*, %"union.std::_Any_data"*, i32)*, i1 (%"union.std::_Any_data"*, %"union.std::_Any_data"*, i32)** %_M_manager2, align 8
  %_M_functor = getelementptr inbounds %"class.std::_Function_base", %"class.std::_Function_base"* %this1, i32 0, i32 0
  %_M_functor3 = getelementptr inbounds %"class.std::_Function_base", %"class.std::_Function_base"* %this1, i32 0, i32 0
  %call = invoke zeroext i1 %1(%"union.std::_Any_data"* nonnull align 8 dereferenceable(16) %_M_functor, %"union.std::_Any_data"* nonnull align 8 dereferenceable(16) %_M_functor3, i32 3)
          to label %invoke.cont unwind label %terminate.lpad

invoke.cont:                                      ; preds = %if.then
  br label %if.end

if.end:                                           ; preds = %invoke.cont, %entry
  ret void

terminate.lpad:                                   ; preds = %if.then
  %2 = landingpad { i8*, i32 }
          catch i8* null
  %3 = extractvalue { i8*, i32 } %2, 0
  call void @__clang_call_terminate(i8* %3) #19
  unreachable
}

; Function Attrs: noinline nounwind optnone uwtable
define linkonce_odr dso_local void @_ZNSt10shared_ptrIN2cl4sycl6detail11device_implEED2Ev(%"class.std::shared_ptr.26"* nonnull align 8 dereferenceable(16) %this) unnamed_addr #6 comdat align 2 {
entry:
  %this.addr = alloca %"class.std::shared_ptr.26"*, align 8
  store %"class.std::shared_ptr.26"* %this, %"class.std::shared_ptr.26"** %this.addr, align 8
  %this1 = load %"class.std::shared_ptr.26"*, %"class.std::shared_ptr.26"** %this.addr, align 8
  %0 = bitcast %"class.std::shared_ptr.26"* %this1 to %"class.std::__shared_ptr.27"*
  call void @_ZNSt12__shared_ptrIN2cl4sycl6detail11device_implELN9__gnu_cxx12_Lock_policyE2EED2Ev(%"class.std::__shared_ptr.27"* nonnull align 8 dereferenceable(16) %0) #3
  ret void
}

; Function Attrs: noinline nounwind optnone uwtable
define linkonce_odr dso_local void @_ZNSt12__shared_ptrIN2cl4sycl6detail11device_implELN9__gnu_cxx12_Lock_policyE2EED2Ev(%"class.std::__shared_ptr.27"* nonnull align 8 dereferenceable(16) %this) unnamed_addr #6 comdat align 2 {
entry:
  %this.addr = alloca %"class.std::__shared_ptr.27"*, align 8
  store %"class.std::__shared_ptr.27"* %this, %"class.std::__shared_ptr.27"** %this.addr, align 8
  %this1 = load %"class.std::__shared_ptr.27"*, %"class.std::__shared_ptr.27"** %this.addr, align 8
  %_M_refcount = getelementptr inbounds %"class.std::__shared_ptr.27", %"class.std::__shared_ptr.27"* %this1, i32 0, i32 1
  call void @_ZNSt14__shared_countILN9__gnu_cxx12_Lock_policyE2EED2Ev(%"class.std::__shared_count"* nonnull align 8 dereferenceable(8) %_M_refcount) #3
  ret void
}

; Function Attrs: noinline nounwind optnone uwtable
define linkonce_odr dso_local void @_ZNSt14__shared_countILN9__gnu_cxx12_Lock_policyE2EED2Ev(%"class.std::__shared_count"* nonnull align 8 dereferenceable(8) %this) unnamed_addr #6 comdat align 2 {
entry:
  %this.addr = alloca %"class.std::__shared_count"*, align 8
  store %"class.std::__shared_count"* %this, %"class.std::__shared_count"** %this.addr, align 8
  %this1 = load %"class.std::__shared_count"*, %"class.std::__shared_count"** %this.addr, align 8
  %_M_pi = getelementptr inbounds %"class.std::__shared_count", %"class.std::__shared_count"* %this1, i32 0, i32 0
  %0 = load %"class.std::_Sp_counted_base"*, %"class.std::_Sp_counted_base"** %_M_pi, align 8
  %cmp = icmp ne %"class.std::_Sp_counted_base"* %0, null
  br i1 %cmp, label %if.then, label %if.end

if.then:                                          ; preds = %entry
  %_M_pi2 = getelementptr inbounds %"class.std::__shared_count", %"class.std::__shared_count"* %this1, i32 0, i32 0
  %1 = load %"class.std::_Sp_counted_base"*, %"class.std::_Sp_counted_base"** %_M_pi2, align 8
  call void @_ZNSt16_Sp_counted_baseILN9__gnu_cxx12_Lock_policyE2EE10_M_releaseEv(%"class.std::_Sp_counted_base"* nonnull align 8 dereferenceable(16) %1) #3
  br label %if.end

if.end:                                           ; preds = %if.then, %entry
  ret void
}

; Function Attrs: noinline nounwind optnone uwtable mustprogress
define linkonce_odr dso_local void @_ZNSt16_Sp_counted_baseILN9__gnu_cxx12_Lock_policyE2EE10_M_releaseEv(%"class.std::_Sp_counted_base"* nonnull align 8 dereferenceable(16) %this) #4 comdat align 2 personality i8* bitcast (i32 (...)* @__gxx_personality_v0 to i8*) {
entry:
  %this.addr = alloca %"class.std::_Sp_counted_base"*, align 8
  store %"class.std::_Sp_counted_base"* %this, %"class.std::_Sp_counted_base"** %this.addr, align 8
  %this1 = load %"class.std::_Sp_counted_base"*, %"class.std::_Sp_counted_base"** %this.addr, align 8
  %_M_use_count = getelementptr inbounds %"class.std::_Sp_counted_base", %"class.std::_Sp_counted_base"* %this1, i32 0, i32 1
  %call = invoke i32 @_ZN9__gnu_cxxL27__exchange_and_add_dispatchEPii(i32* %_M_use_count, i32 -1)
          to label %invoke.cont unwind label %terminate.lpad

invoke.cont:                                      ; preds = %entry
  %cmp = icmp eq i32 %call, 1
  br i1 %cmp, label %if.then, label %if.end8

if.then:                                          ; preds = %invoke.cont
  %0 = bitcast %"class.std::_Sp_counted_base"* %this1 to void (%"class.std::_Sp_counted_base"*)***
  %vtable = load void (%"class.std::_Sp_counted_base"*)**, void (%"class.std::_Sp_counted_base"*)*** %0, align 8
  %vfn = getelementptr inbounds void (%"class.std::_Sp_counted_base"*)*, void (%"class.std::_Sp_counted_base"*)** %vtable, i64 2
  %1 = load void (%"class.std::_Sp_counted_base"*)*, void (%"class.std::_Sp_counted_base"*)** %vfn, align 8
  call void %1(%"class.std::_Sp_counted_base"* nonnull align 8 dereferenceable(16) %this1) #3
  %_M_weak_count = getelementptr inbounds %"class.std::_Sp_counted_base", %"class.std::_Sp_counted_base"* %this1, i32 0, i32 2
  %call3 = invoke i32 @_ZN9__gnu_cxxL27__exchange_and_add_dispatchEPii(i32* %_M_weak_count, i32 -1)
          to label %invoke.cont2 unwind label %terminate.lpad

invoke.cont2:                                     ; preds = %if.then
  %cmp4 = icmp eq i32 %call3, 1
  br i1 %cmp4, label %if.then5, label %if.end

if.then5:                                         ; preds = %invoke.cont2
  %2 = bitcast %"class.std::_Sp_counted_base"* %this1 to void (%"class.std::_Sp_counted_base"*)***
  %vtable6 = load void (%"class.std::_Sp_counted_base"*)**, void (%"class.std::_Sp_counted_base"*)*** %2, align 8
  %vfn7 = getelementptr inbounds void (%"class.std::_Sp_counted_base"*)*, void (%"class.std::_Sp_counted_base"*)** %vtable6, i64 3
  %3 = load void (%"class.std::_Sp_counted_base"*)*, void (%"class.std::_Sp_counted_base"*)** %vfn7, align 8
  call void %3(%"class.std::_Sp_counted_base"* nonnull align 8 dereferenceable(16) %this1) #3
  br label %if.end

if.end:                                           ; preds = %if.then5, %invoke.cont2
  br label %if.end8

if.end8:                                          ; preds = %if.end, %invoke.cont
  ret void

terminate.lpad:                                   ; preds = %if.then, %entry
  %4 = landingpad { i8*, i32 }
          catch i8* null
  %5 = extractvalue { i8*, i32 } %4, 0
  call void @__clang_call_terminate(i8* %5) #19
  unreachable
}

; Function Attrs: noinline optnone uwtable mustprogress
define internal i32 @_ZN9__gnu_cxxL27__exchange_and_add_dispatchEPii(i32* %__mem, i32 %__val) #8 {
entry:
  %retval = alloca i32, align 4
  %__mem.addr = alloca i32*, align 8
  %__val.addr = alloca i32, align 4
  store i32* %__mem, i32** %__mem.addr, align 8
  store i32 %__val, i32* %__val.addr, align 4
  %call = call i32 @_ZL18__gthread_active_pv()
  %tobool = icmp ne i32 %call, 0
  br i1 %tobool, label %if.then, label %if.else

if.then:                                          ; preds = %entry
  %0 = load i32*, i32** %__mem.addr, align 8
  %1 = load i32, i32* %__val.addr, align 4
  %call1 = call i32 @_ZN9__gnu_cxxL18__exchange_and_addEPVii(i32* %0, i32 %1)
  store i32 %call1, i32* %retval, align 4
  br label %return

if.else:                                          ; preds = %entry
  %2 = load i32*, i32** %__mem.addr, align 8
  %3 = load i32, i32* %__val.addr, align 4
  %call2 = call i32 @_ZN9__gnu_cxxL25__exchange_and_add_singleEPii(i32* %2, i32 %3)
  store i32 %call2, i32* %retval, align 4
  br label %return

return:                                           ; preds = %if.else, %if.then
  %4 = load i32, i32* %retval, align 4
  ret i32 %4
}

; Function Attrs: noinline nounwind optnone uwtable mustprogress
define internal i32 @_ZL18__gthread_active_pv() #4 {
entry:
  ret i32 zext (i1 icmp ne (i8* bitcast (i32 (i32*, void (i8*)*)* @__pthread_key_create to i8*), i8* null) to i32)
}

; Function Attrs: noinline nounwind optnone uwtable mustprogress
define internal i32 @_ZN9__gnu_cxxL18__exchange_and_addEPVii(i32* %__mem, i32 %__val) #4 {
entry:
  %__mem.addr = alloca i32*, align 8
  %__val.addr = alloca i32, align 4
  %.atomictmp = alloca i32, align 4
  %atomic-temp = alloca i32, align 4
  store i32* %__mem, i32** %__mem.addr, align 8
  store i32 %__val, i32* %__val.addr, align 4
  %0 = load i32*, i32** %__mem.addr, align 8
  %1 = load i32, i32* %__val.addr, align 4
  store i32 %1, i32* %.atomictmp, align 4
  %2 = load i32, i32* %.atomictmp, align 4
  %3 = atomicrmw volatile add i32* %0, i32 %2 acq_rel, align 4
  store i32 %3, i32* %atomic-temp, align 4
  %4 = load i32, i32* %atomic-temp, align 4
  ret i32 %4
}

; Function Attrs: noinline nounwind optnone uwtable mustprogress
define internal i32 @_ZN9__gnu_cxxL25__exchange_and_add_singleEPii(i32* %__mem, i32 %__val) #4 {
entry:
  %__mem.addr = alloca i32*, align 8
  %__val.addr = alloca i32, align 4
  %__result = alloca i32, align 4
  store i32* %__mem, i32** %__mem.addr, align 8
  store i32 %__val, i32* %__val.addr, align 4
  %0 = load i32*, i32** %__mem.addr, align 8
  %1 = load i32, i32* %0, align 4
  store i32 %1, i32* %__result, align 4
  %2 = load i32, i32* %__val.addr, align 4
  %3 = load i32*, i32** %__mem.addr, align 8
  %4 = load i32, i32* %3, align 4
  %add = add nsw i32 %4, %2
  store i32 %add, i32* %3, align 4
  %5 = load i32, i32* %__result, align 4
  ret i32 %5
}

; Function Attrs: nounwind
declare extern_weak dso_local i32 @__pthread_key_create(i32*, void (i8*)*) #2

; Function Attrs: noinline nounwind optnone uwtable
define linkonce_odr dso_local void @_ZN2cl4sycl6detail16PropertyListBaseD2Ev(%"class.cl::sycl::detail::PropertyListBase"* nonnull align 8 dereferenceable(32) %this) unnamed_addr #6 comdat align 2 {
entry:
  %this.addr = alloca %"class.cl::sycl::detail::PropertyListBase"*, align 8
  store %"class.cl::sycl::detail::PropertyListBase"* %this, %"class.cl::sycl::detail::PropertyListBase"** %this.addr, align 8
  %this1 = load %"class.cl::sycl::detail::PropertyListBase"*, %"class.cl::sycl::detail::PropertyListBase"** %this.addr, align 8
  %MPropsWithData = getelementptr inbounds %"class.cl::sycl::detail::PropertyListBase", %"class.cl::sycl::detail::PropertyListBase"* %this1, i32 0, i32 1
  call void @_ZNSt6vectorISt10shared_ptrIN2cl4sycl6detail20PropertyWithDataBaseEESaIS5_EED2Ev(%"class.std::vector"* nonnull align 8 dereferenceable(24) %MPropsWithData) #3
  ret void
}

; Function Attrs: noinline nounwind optnone uwtable
define linkonce_odr dso_local void @_ZNSt6vectorISt10shared_ptrIN2cl4sycl6detail20PropertyWithDataBaseEESaIS5_EED2Ev(%"class.std::vector"* nonnull align 8 dereferenceable(24) %this) unnamed_addr #6 comdat align 2 personality i8* bitcast (i32 (...)* @__gxx_personality_v0 to i8*) {
entry:
  %this.addr = alloca %"class.std::vector"*, align 8
  %exn.slot = alloca i8*, align 8
  %ehselector.slot = alloca i32, align 4
  store %"class.std::vector"* %this, %"class.std::vector"** %this.addr, align 8
  %this1 = load %"class.std::vector"*, %"class.std::vector"** %this.addr, align 8
  %0 = bitcast %"class.std::vector"* %this1 to %"struct.std::_Vector_base"*
  %_M_impl = getelementptr inbounds %"struct.std::_Vector_base", %"struct.std::_Vector_base"* %0, i32 0, i32 0
  %1 = bitcast %"struct.std::_Vector_base<std::shared_ptr<cl::sycl::detail::PropertyWithDataBase>, std::allocator<std::shared_ptr<cl::sycl::detail::PropertyWithDataBase>>>::_Vector_impl"* %_M_impl to %"struct.std::_Vector_base<std::shared_ptr<cl::sycl::detail::PropertyWithDataBase>, std::allocator<std::shared_ptr<cl::sycl::detail::PropertyWithDataBase>>>::_Vector_impl_data"*
  %_M_start = getelementptr inbounds %"struct.std::_Vector_base<std::shared_ptr<cl::sycl::detail::PropertyWithDataBase>, std::allocator<std::shared_ptr<cl::sycl::detail::PropertyWithDataBase>>>::_Vector_impl_data", %"struct.std::_Vector_base<std::shared_ptr<cl::sycl::detail::PropertyWithDataBase>, std::allocator<std::shared_ptr<cl::sycl::detail::PropertyWithDataBase>>>::_Vector_impl_data"* %1, i32 0, i32 0
  %2 = load %"class.std::shared_ptr.0"*, %"class.std::shared_ptr.0"** %_M_start, align 8
  %3 = bitcast %"class.std::vector"* %this1 to %"struct.std::_Vector_base"*
  %_M_impl2 = getelementptr inbounds %"struct.std::_Vector_base", %"struct.std::_Vector_base"* %3, i32 0, i32 0
  %4 = bitcast %"struct.std::_Vector_base<std::shared_ptr<cl::sycl::detail::PropertyWithDataBase>, std::allocator<std::shared_ptr<cl::sycl::detail::PropertyWithDataBase>>>::_Vector_impl"* %_M_impl2 to %"struct.std::_Vector_base<std::shared_ptr<cl::sycl::detail::PropertyWithDataBase>, std::allocator<std::shared_ptr<cl::sycl::detail::PropertyWithDataBase>>>::_Vector_impl_data"*
  %_M_finish = getelementptr inbounds %"struct.std::_Vector_base<std::shared_ptr<cl::sycl::detail::PropertyWithDataBase>, std::allocator<std::shared_ptr<cl::sycl::detail::PropertyWithDataBase>>>::_Vector_impl_data", %"struct.std::_Vector_base<std::shared_ptr<cl::sycl::detail::PropertyWithDataBase>, std::allocator<std::shared_ptr<cl::sycl::detail::PropertyWithDataBase>>>::_Vector_impl_data"* %4, i32 0, i32 1
  %5 = load %"class.std::shared_ptr.0"*, %"class.std::shared_ptr.0"** %_M_finish, align 8
  %6 = bitcast %"class.std::vector"* %this1 to %"struct.std::_Vector_base"*
  %call = call nonnull align 1 dereferenceable(1) %"class.std::allocator"* @_ZNSt12_Vector_baseISt10shared_ptrIN2cl4sycl6detail20PropertyWithDataBaseEESaIS5_EE19_M_get_Tp_allocatorEv(%"struct.std::_Vector_base"* nonnull align 8 dereferenceable(24) %6) #3
  invoke void @_ZSt8_DestroyIPSt10shared_ptrIN2cl4sycl6detail20PropertyWithDataBaseEES5_EvT_S7_RSaIT0_E(%"class.std::shared_ptr.0"* %2, %"class.std::shared_ptr.0"* %5, %"class.std::allocator"* nonnull align 1 dereferenceable(1) %call)
          to label %invoke.cont unwind label %lpad

invoke.cont:                                      ; preds = %entry
  %7 = bitcast %"class.std::vector"* %this1 to %"struct.std::_Vector_base"*
  call void @_ZNSt12_Vector_baseISt10shared_ptrIN2cl4sycl6detail20PropertyWithDataBaseEESaIS5_EED2Ev(%"struct.std::_Vector_base"* nonnull align 8 dereferenceable(24) %7) #3
  ret void

lpad:                                             ; preds = %entry
  %8 = landingpad { i8*, i32 }
          catch i8* null
  %9 = extractvalue { i8*, i32 } %8, 0
  store i8* %9, i8** %exn.slot, align 8
  %10 = extractvalue { i8*, i32 } %8, 1
  store i32 %10, i32* %ehselector.slot, align 4
  %11 = bitcast %"class.std::vector"* %this1 to %"struct.std::_Vector_base"*
  call void @_ZNSt12_Vector_baseISt10shared_ptrIN2cl4sycl6detail20PropertyWithDataBaseEESaIS5_EED2Ev(%"struct.std::_Vector_base"* nonnull align 8 dereferenceable(24) %11) #3
  br label %terminate.handler

terminate.handler:                                ; preds = %lpad
  %exn = load i8*, i8** %exn.slot, align 8
  call void @__clang_call_terminate(i8* %exn) #19
  unreachable
}

; Function Attrs: noinline optnone uwtable mustprogress
define linkonce_odr dso_local void @_ZSt8_DestroyIPSt10shared_ptrIN2cl4sycl6detail20PropertyWithDataBaseEES5_EvT_S7_RSaIT0_E(%"class.std::shared_ptr.0"* %__first, %"class.std::shared_ptr.0"* %__last, %"class.std::allocator"* nonnull align 1 dereferenceable(1) %0) #8 comdat {
entry:
  %__first.addr = alloca %"class.std::shared_ptr.0"*, align 8
  %__last.addr = alloca %"class.std::shared_ptr.0"*, align 8
  %.addr = alloca %"class.std::allocator"*, align 8
  store %"class.std::shared_ptr.0"* %__first, %"class.std::shared_ptr.0"** %__first.addr, align 8
  store %"class.std::shared_ptr.0"* %__last, %"class.std::shared_ptr.0"** %__last.addr, align 8
  store %"class.std::allocator"* %0, %"class.std::allocator"** %.addr, align 8
  %1 = load %"class.std::shared_ptr.0"*, %"class.std::shared_ptr.0"** %__first.addr, align 8
  %2 = load %"class.std::shared_ptr.0"*, %"class.std::shared_ptr.0"** %__last.addr, align 8
  call void @_ZSt8_DestroyIPSt10shared_ptrIN2cl4sycl6detail20PropertyWithDataBaseEEEvT_S7_(%"class.std::shared_ptr.0"* %1, %"class.std::shared_ptr.0"* %2)
  ret void
}

; Function Attrs: noinline nounwind optnone uwtable mustprogress
define linkonce_odr dso_local nonnull align 1 dereferenceable(1) %"class.std::allocator"* @_ZNSt12_Vector_baseISt10shared_ptrIN2cl4sycl6detail20PropertyWithDataBaseEESaIS5_EE19_M_get_Tp_allocatorEv(%"struct.std::_Vector_base"* nonnull align 8 dereferenceable(24) %this) #4 comdat align 2 {
entry:
  %this.addr = alloca %"struct.std::_Vector_base"*, align 8
  store %"struct.std::_Vector_base"* %this, %"struct.std::_Vector_base"** %this.addr, align 8
  %this1 = load %"struct.std::_Vector_base"*, %"struct.std::_Vector_base"** %this.addr, align 8
  %_M_impl = getelementptr inbounds %"struct.std::_Vector_base", %"struct.std::_Vector_base"* %this1, i32 0, i32 0
  %0 = bitcast %"struct.std::_Vector_base<std::shared_ptr<cl::sycl::detail::PropertyWithDataBase>, std::allocator<std::shared_ptr<cl::sycl::detail::PropertyWithDataBase>>>::_Vector_impl"* %_M_impl to %"class.std::allocator"*
  ret %"class.std::allocator"* %0
}

; Function Attrs: noinline nounwind optnone uwtable
define linkonce_odr dso_local void @_ZNSt12_Vector_baseISt10shared_ptrIN2cl4sycl6detail20PropertyWithDataBaseEESaIS5_EED2Ev(%"struct.std::_Vector_base"* nonnull align 8 dereferenceable(24) %this) unnamed_addr #6 comdat align 2 personality i8* bitcast (i32 (...)* @__gxx_personality_v0 to i8*) {
entry:
  %this.addr = alloca %"struct.std::_Vector_base"*, align 8
  %exn.slot = alloca i8*, align 8
  %ehselector.slot = alloca i32, align 4
  store %"struct.std::_Vector_base"* %this, %"struct.std::_Vector_base"** %this.addr, align 8
  %this1 = load %"struct.std::_Vector_base"*, %"struct.std::_Vector_base"** %this.addr, align 8
  %_M_impl = getelementptr inbounds %"struct.std::_Vector_base", %"struct.std::_Vector_base"* %this1, i32 0, i32 0
  %0 = bitcast %"struct.std::_Vector_base<std::shared_ptr<cl::sycl::detail::PropertyWithDataBase>, std::allocator<std::shared_ptr<cl::sycl::detail::PropertyWithDataBase>>>::_Vector_impl"* %_M_impl to %"struct.std::_Vector_base<std::shared_ptr<cl::sycl::detail::PropertyWithDataBase>, std::allocator<std::shared_ptr<cl::sycl::detail::PropertyWithDataBase>>>::_Vector_impl_data"*
  %_M_start = getelementptr inbounds %"struct.std::_Vector_base<std::shared_ptr<cl::sycl::detail::PropertyWithDataBase>, std::allocator<std::shared_ptr<cl::sycl::detail::PropertyWithDataBase>>>::_Vector_impl_data", %"struct.std::_Vector_base<std::shared_ptr<cl::sycl::detail::PropertyWithDataBase>, std::allocator<std::shared_ptr<cl::sycl::detail::PropertyWithDataBase>>>::_Vector_impl_data"* %0, i32 0, i32 0
  %1 = load %"class.std::shared_ptr.0"*, %"class.std::shared_ptr.0"** %_M_start, align 8
  %_M_impl2 = getelementptr inbounds %"struct.std::_Vector_base", %"struct.std::_Vector_base"* %this1, i32 0, i32 0
  %2 = bitcast %"struct.std::_Vector_base<std::shared_ptr<cl::sycl::detail::PropertyWithDataBase>, std::allocator<std::shared_ptr<cl::sycl::detail::PropertyWithDataBase>>>::_Vector_impl"* %_M_impl2 to %"struct.std::_Vector_base<std::shared_ptr<cl::sycl::detail::PropertyWithDataBase>, std::allocator<std::shared_ptr<cl::sycl::detail::PropertyWithDataBase>>>::_Vector_impl_data"*
  %_M_end_of_storage = getelementptr inbounds %"struct.std::_Vector_base<std::shared_ptr<cl::sycl::detail::PropertyWithDataBase>, std::allocator<std::shared_ptr<cl::sycl::detail::PropertyWithDataBase>>>::_Vector_impl_data", %"struct.std::_Vector_base<std::shared_ptr<cl::sycl::detail::PropertyWithDataBase>, std::allocator<std::shared_ptr<cl::sycl::detail::PropertyWithDataBase>>>::_Vector_impl_data"* %2, i32 0, i32 2
  %3 = load %"class.std::shared_ptr.0"*, %"class.std::shared_ptr.0"** %_M_end_of_storage, align 8
  %_M_impl3 = getelementptr inbounds %"struct.std::_Vector_base", %"struct.std::_Vector_base"* %this1, i32 0, i32 0
  %4 = bitcast %"struct.std::_Vector_base<std::shared_ptr<cl::sycl::detail::PropertyWithDataBase>, std::allocator<std::shared_ptr<cl::sycl::detail::PropertyWithDataBase>>>::_Vector_impl"* %_M_impl3 to %"struct.std::_Vector_base<std::shared_ptr<cl::sycl::detail::PropertyWithDataBase>, std::allocator<std::shared_ptr<cl::sycl::detail::PropertyWithDataBase>>>::_Vector_impl_data"*
  %_M_start4 = getelementptr inbounds %"struct.std::_Vector_base<std::shared_ptr<cl::sycl::detail::PropertyWithDataBase>, std::allocator<std::shared_ptr<cl::sycl::detail::PropertyWithDataBase>>>::_Vector_impl_data", %"struct.std::_Vector_base<std::shared_ptr<cl::sycl::detail::PropertyWithDataBase>, std::allocator<std::shared_ptr<cl::sycl::detail::PropertyWithDataBase>>>::_Vector_impl_data"* %4, i32 0, i32 0
  %5 = load %"class.std::shared_ptr.0"*, %"class.std::shared_ptr.0"** %_M_start4, align 8
  %sub.ptr.lhs.cast = ptrtoint %"class.std::shared_ptr.0"* %3 to i64
  %sub.ptr.rhs.cast = ptrtoint %"class.std::shared_ptr.0"* %5 to i64
  %sub.ptr.sub = sub i64 %sub.ptr.lhs.cast, %sub.ptr.rhs.cast
  %sub.ptr.div = sdiv exact i64 %sub.ptr.sub, 16
  invoke void @_ZNSt12_Vector_baseISt10shared_ptrIN2cl4sycl6detail20PropertyWithDataBaseEESaIS5_EE13_M_deallocateEPS5_m(%"struct.std::_Vector_base"* nonnull align 8 dereferenceable(24) %this1, %"class.std::shared_ptr.0"* %1, i64 %sub.ptr.div)
          to label %invoke.cont unwind label %lpad

invoke.cont:                                      ; preds = %entry
  %_M_impl5 = getelementptr inbounds %"struct.std::_Vector_base", %"struct.std::_Vector_base"* %this1, i32 0, i32 0
  call void @_ZNSt12_Vector_baseISt10shared_ptrIN2cl4sycl6detail20PropertyWithDataBaseEESaIS5_EE12_Vector_implD2Ev(%"struct.std::_Vector_base<std::shared_ptr<cl::sycl::detail::PropertyWithDataBase>, std::allocator<std::shared_ptr<cl::sycl::detail::PropertyWithDataBase>>>::_Vector_impl"* nonnull align 8 dereferenceable(24) %_M_impl5) #3
  ret void

lpad:                                             ; preds = %entry
  %6 = landingpad { i8*, i32 }
          catch i8* null
  %7 = extractvalue { i8*, i32 } %6, 0
  store i8* %7, i8** %exn.slot, align 8
  %8 = extractvalue { i8*, i32 } %6, 1
  store i32 %8, i32* %ehselector.slot, align 4
  %_M_impl6 = getelementptr inbounds %"struct.std::_Vector_base", %"struct.std::_Vector_base"* %this1, i32 0, i32 0
  call void @_ZNSt12_Vector_baseISt10shared_ptrIN2cl4sycl6detail20PropertyWithDataBaseEESaIS5_EE12_Vector_implD2Ev(%"struct.std::_Vector_base<std::shared_ptr<cl::sycl::detail::PropertyWithDataBase>, std::allocator<std::shared_ptr<cl::sycl::detail::PropertyWithDataBase>>>::_Vector_impl"* nonnull align 8 dereferenceable(24) %_M_impl6) #3
  br label %terminate.handler

terminate.handler:                                ; preds = %lpad
  %exn = load i8*, i8** %exn.slot, align 8
  call void @__clang_call_terminate(i8* %exn) #19
  unreachable
}

; Function Attrs: noinline optnone uwtable mustprogress
define linkonce_odr dso_local void @_ZSt8_DestroyIPSt10shared_ptrIN2cl4sycl6detail20PropertyWithDataBaseEEEvT_S7_(%"class.std::shared_ptr.0"* %__first, %"class.std::shared_ptr.0"* %__last) #8 comdat {
entry:
  %__first.addr = alloca %"class.std::shared_ptr.0"*, align 8
  %__last.addr = alloca %"class.std::shared_ptr.0"*, align 8
  store %"class.std::shared_ptr.0"* %__first, %"class.std::shared_ptr.0"** %__first.addr, align 8
  store %"class.std::shared_ptr.0"* %__last, %"class.std::shared_ptr.0"** %__last.addr, align 8
  %0 = load %"class.std::shared_ptr.0"*, %"class.std::shared_ptr.0"** %__first.addr, align 8
  %1 = load %"class.std::shared_ptr.0"*, %"class.std::shared_ptr.0"** %__last.addr, align 8
  call void @_ZNSt12_Destroy_auxILb0EE9__destroyIPSt10shared_ptrIN2cl4sycl6detail20PropertyWithDataBaseEEEEvT_S9_(%"class.std::shared_ptr.0"* %0, %"class.std::shared_ptr.0"* %1)
  ret void
}

; Function Attrs: noinline optnone uwtable mustprogress
define linkonce_odr dso_local void @_ZNSt12_Destroy_auxILb0EE9__destroyIPSt10shared_ptrIN2cl4sycl6detail20PropertyWithDataBaseEEEEvT_S9_(%"class.std::shared_ptr.0"* %__first, %"class.std::shared_ptr.0"* %__last) #8 comdat align 2 {
entry:
  %__first.addr = alloca %"class.std::shared_ptr.0"*, align 8
  %__last.addr = alloca %"class.std::shared_ptr.0"*, align 8
  store %"class.std::shared_ptr.0"* %__first, %"class.std::shared_ptr.0"** %__first.addr, align 8
  store %"class.std::shared_ptr.0"* %__last, %"class.std::shared_ptr.0"** %__last.addr, align 8
  br label %for.cond

for.cond:                                         ; preds = %for.inc, %entry
  %0 = load %"class.std::shared_ptr.0"*, %"class.std::shared_ptr.0"** %__first.addr, align 8
  %1 = load %"class.std::shared_ptr.0"*, %"class.std::shared_ptr.0"** %__last.addr, align 8
  %cmp = icmp ne %"class.std::shared_ptr.0"* %0, %1
  br i1 %cmp, label %for.body, label %for.end

for.body:                                         ; preds = %for.cond
  %2 = load %"class.std::shared_ptr.0"*, %"class.std::shared_ptr.0"** %__first.addr, align 8
  %call = call %"class.std::shared_ptr.0"* @_ZSt11__addressofISt10shared_ptrIN2cl4sycl6detail20PropertyWithDataBaseEEEPT_RS6_(%"class.std::shared_ptr.0"* nonnull align 8 dereferenceable(16) %2) #3
  call void @_ZSt8_DestroyISt10shared_ptrIN2cl4sycl6detail20PropertyWithDataBaseEEEvPT_(%"class.std::shared_ptr.0"* %call)
  br label %for.inc

for.inc:                                          ; preds = %for.body
  %3 = load %"class.std::shared_ptr.0"*, %"class.std::shared_ptr.0"** %__first.addr, align 8
  %incdec.ptr = getelementptr inbounds %"class.std::shared_ptr.0", %"class.std::shared_ptr.0"* %3, i32 1
  store %"class.std::shared_ptr.0"* %incdec.ptr, %"class.std::shared_ptr.0"** %__first.addr, align 8
  br label %for.cond, !llvm.loop !6

for.end:                                          ; preds = %for.cond
  ret void
}

; Function Attrs: noinline nounwind optnone uwtable mustprogress
define linkonce_odr dso_local void @_ZSt8_DestroyISt10shared_ptrIN2cl4sycl6detail20PropertyWithDataBaseEEEvPT_(%"class.std::shared_ptr.0"* %__pointer) #4 comdat {
entry:
  %__pointer.addr = alloca %"class.std::shared_ptr.0"*, align 8
  store %"class.std::shared_ptr.0"* %__pointer, %"class.std::shared_ptr.0"** %__pointer.addr, align 8
  %0 = load %"class.std::shared_ptr.0"*, %"class.std::shared_ptr.0"** %__pointer.addr, align 8
  call void @_ZNSt10shared_ptrIN2cl4sycl6detail20PropertyWithDataBaseEED2Ev(%"class.std::shared_ptr.0"* nonnull align 8 dereferenceable(16) %0) #3
  ret void
}

; Function Attrs: noinline nounwind optnone uwtable mustprogress
define linkonce_odr dso_local %"class.std::shared_ptr.0"* @_ZSt11__addressofISt10shared_ptrIN2cl4sycl6detail20PropertyWithDataBaseEEEPT_RS6_(%"class.std::shared_ptr.0"* nonnull align 8 dereferenceable(16) %__r) #4 comdat {
entry:
  %__r.addr = alloca %"class.std::shared_ptr.0"*, align 8
  store %"class.std::shared_ptr.0"* %__r, %"class.std::shared_ptr.0"** %__r.addr, align 8
  %0 = load %"class.std::shared_ptr.0"*, %"class.std::shared_ptr.0"** %__r.addr, align 8
  ret %"class.std::shared_ptr.0"* %0
}

; Function Attrs: noinline nounwind optnone uwtable
define linkonce_odr dso_local void @_ZNSt10shared_ptrIN2cl4sycl6detail20PropertyWithDataBaseEED2Ev(%"class.std::shared_ptr.0"* nonnull align 8 dereferenceable(16) %this) unnamed_addr #6 comdat align 2 {
entry:
  %this.addr = alloca %"class.std::shared_ptr.0"*, align 8
  store %"class.std::shared_ptr.0"* %this, %"class.std::shared_ptr.0"** %this.addr, align 8
  %this1 = load %"class.std::shared_ptr.0"*, %"class.std::shared_ptr.0"** %this.addr, align 8
  %0 = bitcast %"class.std::shared_ptr.0"* %this1 to %"class.std::__shared_ptr.1"*
  call void @_ZNSt12__shared_ptrIN2cl4sycl6detail20PropertyWithDataBaseELN9__gnu_cxx12_Lock_policyE2EED2Ev(%"class.std::__shared_ptr.1"* nonnull align 8 dereferenceable(16) %0) #3
  ret void
}

; Function Attrs: noinline nounwind optnone uwtable
define linkonce_odr dso_local void @_ZNSt12__shared_ptrIN2cl4sycl6detail20PropertyWithDataBaseELN9__gnu_cxx12_Lock_policyE2EED2Ev(%"class.std::__shared_ptr.1"* nonnull align 8 dereferenceable(16) %this) unnamed_addr #6 comdat align 2 {
entry:
  %this.addr = alloca %"class.std::__shared_ptr.1"*, align 8
  store %"class.std::__shared_ptr.1"* %this, %"class.std::__shared_ptr.1"** %this.addr, align 8
  %this1 = load %"class.std::__shared_ptr.1"*, %"class.std::__shared_ptr.1"** %this.addr, align 8
  %_M_refcount = getelementptr inbounds %"class.std::__shared_ptr.1", %"class.std::__shared_ptr.1"* %this1, i32 0, i32 1
  call void @_ZNSt14__shared_countILN9__gnu_cxx12_Lock_policyE2EED2Ev(%"class.std::__shared_count"* nonnull align 8 dereferenceable(8) %_M_refcount) #3
  ret void
}

; Function Attrs: noinline optnone uwtable mustprogress
define linkonce_odr dso_local void @_ZNSt12_Vector_baseISt10shared_ptrIN2cl4sycl6detail20PropertyWithDataBaseEESaIS5_EE13_M_deallocateEPS5_m(%"struct.std::_Vector_base"* nonnull align 8 dereferenceable(24) %this, %"class.std::shared_ptr.0"* %__p, i64 %__n) #8 comdat align 2 {
entry:
  %this.addr = alloca %"struct.std::_Vector_base"*, align 8
  %__p.addr = alloca %"class.std::shared_ptr.0"*, align 8
  %__n.addr = alloca i64, align 8
  store %"struct.std::_Vector_base"* %this, %"struct.std::_Vector_base"** %this.addr, align 8
  store %"class.std::shared_ptr.0"* %__p, %"class.std::shared_ptr.0"** %__p.addr, align 8
  store i64 %__n, i64* %__n.addr, align 8
  %this1 = load %"struct.std::_Vector_base"*, %"struct.std::_Vector_base"** %this.addr, align 8
  %0 = load %"class.std::shared_ptr.0"*, %"class.std::shared_ptr.0"** %__p.addr, align 8
  %tobool = icmp ne %"class.std::shared_ptr.0"* %0, null
  br i1 %tobool, label %if.then, label %if.end

if.then:                                          ; preds = %entry
  %_M_impl = getelementptr inbounds %"struct.std::_Vector_base", %"struct.std::_Vector_base"* %this1, i32 0, i32 0
  %1 = bitcast %"struct.std::_Vector_base<std::shared_ptr<cl::sycl::detail::PropertyWithDataBase>, std::allocator<std::shared_ptr<cl::sycl::detail::PropertyWithDataBase>>>::_Vector_impl"* %_M_impl to %"class.std::allocator"*
  %2 = load %"class.std::shared_ptr.0"*, %"class.std::shared_ptr.0"** %__p.addr, align 8
  %3 = load i64, i64* %__n.addr, align 8
  call void @_ZNSt16allocator_traitsISaISt10shared_ptrIN2cl4sycl6detail20PropertyWithDataBaseEEEE10deallocateERS6_PS5_m(%"class.std::allocator"* nonnull align 1 dereferenceable(1) %1, %"class.std::shared_ptr.0"* %2, i64 %3)
  br label %if.end

if.end:                                           ; preds = %if.then, %entry
  ret void
}

; Function Attrs: noinline nounwind optnone uwtable
define linkonce_odr dso_local void @_ZNSt12_Vector_baseISt10shared_ptrIN2cl4sycl6detail20PropertyWithDataBaseEESaIS5_EE12_Vector_implD2Ev(%"struct.std::_Vector_base<std::shared_ptr<cl::sycl::detail::PropertyWithDataBase>, std::allocator<std::shared_ptr<cl::sycl::detail::PropertyWithDataBase>>>::_Vector_impl"* nonnull align 8 dereferenceable(24) %this) unnamed_addr #6 comdat align 2 {
entry:
  %this.addr = alloca %"struct.std::_Vector_base<std::shared_ptr<cl::sycl::detail::PropertyWithDataBase>, std::allocator<std::shared_ptr<cl::sycl::detail::PropertyWithDataBase>>>::_Vector_impl"*, align 8
  store %"struct.std::_Vector_base<std::shared_ptr<cl::sycl::detail::PropertyWithDataBase>, std::allocator<std::shared_ptr<cl::sycl::detail::PropertyWithDataBase>>>::_Vector_impl"* %this, %"struct.std::_Vector_base<std::shared_ptr<cl::sycl::detail::PropertyWithDataBase>, std::allocator<std::shared_ptr<cl::sycl::detail::PropertyWithDataBase>>>::_Vector_impl"** %this.addr, align 8
  %this1 = load %"struct.std::_Vector_base<std::shared_ptr<cl::sycl::detail::PropertyWithDataBase>, std::allocator<std::shared_ptr<cl::sycl::detail::PropertyWithDataBase>>>::_Vector_impl"*, %"struct.std::_Vector_base<std::shared_ptr<cl::sycl::detail::PropertyWithDataBase>, std::allocator<std::shared_ptr<cl::sycl::detail::PropertyWithDataBase>>>::_Vector_impl"** %this.addr, align 8
  %0 = bitcast %"struct.std::_Vector_base<std::shared_ptr<cl::sycl::detail::PropertyWithDataBase>, std::allocator<std::shared_ptr<cl::sycl::detail::PropertyWithDataBase>>>::_Vector_impl"* %this1 to %"class.std::allocator"*
  call void @_ZNSaISt10shared_ptrIN2cl4sycl6detail20PropertyWithDataBaseEEED2Ev(%"class.std::allocator"* nonnull align 1 dereferenceable(1) %0) #3
  ret void
}

; Function Attrs: noinline optnone uwtable mustprogress
define linkonce_odr dso_local void @_ZNSt16allocator_traitsISaISt10shared_ptrIN2cl4sycl6detail20PropertyWithDataBaseEEEE10deallocateERS6_PS5_m(%"class.std::allocator"* nonnull align 1 dereferenceable(1) %__a, %"class.std::shared_ptr.0"* %__p, i64 %__n) #8 comdat align 2 {
entry:
  %__a.addr = alloca %"class.std::allocator"*, align 8
  %__p.addr = alloca %"class.std::shared_ptr.0"*, align 8
  %__n.addr = alloca i64, align 8
  store %"class.std::allocator"* %__a, %"class.std::allocator"** %__a.addr, align 8
  store %"class.std::shared_ptr.0"* %__p, %"class.std::shared_ptr.0"** %__p.addr, align 8
  store i64 %__n, i64* %__n.addr, align 8
  %0 = load %"class.std::allocator"*, %"class.std::allocator"** %__a.addr, align 8
  %1 = bitcast %"class.std::allocator"* %0 to %"class.__gnu_cxx::new_allocator"*
  %2 = load %"class.std::shared_ptr.0"*, %"class.std::shared_ptr.0"** %__p.addr, align 8
  %3 = load i64, i64* %__n.addr, align 8
  call void @_ZN9__gnu_cxx13new_allocatorISt10shared_ptrIN2cl4sycl6detail20PropertyWithDataBaseEEE10deallocateEPS6_m(%"class.__gnu_cxx::new_allocator"* nonnull align 1 dereferenceable(1) %1, %"class.std::shared_ptr.0"* %2, i64 %3)
  ret void
}

; Function Attrs: noinline nounwind optnone uwtable mustprogress
define linkonce_odr dso_local void @_ZN9__gnu_cxx13new_allocatorISt10shared_ptrIN2cl4sycl6detail20PropertyWithDataBaseEEE10deallocateEPS6_m(%"class.__gnu_cxx::new_allocator"* nonnull align 1 dereferenceable(1) %this, %"class.std::shared_ptr.0"* %__p, i64 %0) #4 comdat align 2 {
entry:
  %this.addr = alloca %"class.__gnu_cxx::new_allocator"*, align 8
  %__p.addr = alloca %"class.std::shared_ptr.0"*, align 8
  %.addr = alloca i64, align 8
  store %"class.__gnu_cxx::new_allocator"* %this, %"class.__gnu_cxx::new_allocator"** %this.addr, align 8
  store %"class.std::shared_ptr.0"* %__p, %"class.std::shared_ptr.0"** %__p.addr, align 8
  store i64 %0, i64* %.addr, align 8
  %this1 = load %"class.__gnu_cxx::new_allocator"*, %"class.__gnu_cxx::new_allocator"** %this.addr, align 8
  %1 = load %"class.std::shared_ptr.0"*, %"class.std::shared_ptr.0"** %__p.addr, align 8
  %2 = bitcast %"class.std::shared_ptr.0"* %1 to i8*
  call void @_ZdlPv(i8* %2) #3
  ret void
}

; Function Attrs: nobuiltin nounwind
declare dso_local void @_ZdlPv(i8*) #10

; Function Attrs: noinline nounwind optnone uwtable
define linkonce_odr dso_local void @_ZN9__gnu_cxx13new_allocatorISt10shared_ptrIN2cl4sycl6detail20PropertyWithDataBaseEEED2Ev(%"class.__gnu_cxx::new_allocator"* nonnull align 1 dereferenceable(1) %this) unnamed_addr #6 comdat align 2 {
entry:
  %this.addr = alloca %"class.__gnu_cxx::new_allocator"*, align 8
  store %"class.__gnu_cxx::new_allocator"* %this, %"class.__gnu_cxx::new_allocator"** %this.addr, align 8
  %this1 = load %"class.__gnu_cxx::new_allocator"*, %"class.__gnu_cxx::new_allocator"** %this.addr, align 8
  ret void
}

; Function Attrs: noinline nounwind optnone uwtable
define linkonce_odr dso_local void @_ZN2cl4sycl6detail13code_locationC2EPKcS4_ii(%"struct.cl::sycl::detail::code_location"* nonnull align 8 dereferenceable(32) %this, i8* %file, i8* %func, i32 %line, i32 %col) unnamed_addr #6 comdat align 2 {
entry:
  %this.addr = alloca %"struct.cl::sycl::detail::code_location"*, align 8
  %file.addr = alloca i8*, align 8
  %func.addr = alloca i8*, align 8
  %line.addr = alloca i32, align 4
  %col.addr = alloca i32, align 4
  store %"struct.cl::sycl::detail::code_location"* %this, %"struct.cl::sycl::detail::code_location"** %this.addr, align 8
  store i8* %file, i8** %file.addr, align 8
  store i8* %func, i8** %func.addr, align 8
  store i32 %line, i32* %line.addr, align 4
  store i32 %col, i32* %col.addr, align 4
  %this1 = load %"struct.cl::sycl::detail::code_location"*, %"struct.cl::sycl::detail::code_location"** %this.addr, align 8
  %MFileName = getelementptr inbounds %"struct.cl::sycl::detail::code_location", %"struct.cl::sycl::detail::code_location"* %this1, i32 0, i32 0
  %0 = load i8*, i8** %file.addr, align 8
  store i8* %0, i8** %MFileName, align 8
  %MFunctionName = getelementptr inbounds %"struct.cl::sycl::detail::code_location", %"struct.cl::sycl::detail::code_location"* %this1, i32 0, i32 1
  %1 = load i8*, i8** %func.addr, align 8
  store i8* %1, i8** %MFunctionName, align 8
  %MLineNo = getelementptr inbounds %"struct.cl::sycl::detail::code_location", %"struct.cl::sycl::detail::code_location"* %this1, i32 0, i32 2
  %2 = load i32, i32* %line.addr, align 4
  %conv = sext i32 %2 to i64
  store i64 %conv, i64* %MLineNo, align 8
  %MColumnNo = getelementptr inbounds %"struct.cl::sycl::detail::code_location", %"struct.cl::sycl::detail::code_location"* %this1, i32 0, i32 3
  %3 = load i32, i32* %col.addr, align 4
  %conv2 = sext i32 %3 to i64
  store i64 %conv2, i64* %MColumnNo, align 8
  ret void
}

; Function Attrs: noinline nounwind optnone uwtable
define linkonce_odr dso_local void @_ZNSt10shared_ptrIN2cl4sycl6detail10event_implEED2Ev(%"class.std::shared_ptr.11"* nonnull align 8 dereferenceable(16) %this) unnamed_addr #6 comdat align 2 {
entry:
  %this.addr = alloca %"class.std::shared_ptr.11"*, align 8
  store %"class.std::shared_ptr.11"* %this, %"class.std::shared_ptr.11"** %this.addr, align 8
  %this1 = load %"class.std::shared_ptr.11"*, %"class.std::shared_ptr.11"** %this.addr, align 8
  %0 = bitcast %"class.std::shared_ptr.11"* %this1 to %"class.std::__shared_ptr.12"*
  call void @_ZNSt12__shared_ptrIN2cl4sycl6detail10event_implELN9__gnu_cxx12_Lock_policyE2EED2Ev(%"class.std::__shared_ptr.12"* nonnull align 8 dereferenceable(16) %0) #3
  ret void
}

; Function Attrs: noinline nounwind optnone uwtable
define linkonce_odr dso_local void @_ZNSt12__shared_ptrIN2cl4sycl6detail10event_implELN9__gnu_cxx12_Lock_policyE2EED2Ev(%"class.std::__shared_ptr.12"* nonnull align 8 dereferenceable(16) %this) unnamed_addr #6 comdat align 2 {
entry:
  %this.addr = alloca %"class.std::__shared_ptr.12"*, align 8
  store %"class.std::__shared_ptr.12"* %this, %"class.std::__shared_ptr.12"** %this.addr, align 8
  %this1 = load %"class.std::__shared_ptr.12"*, %"class.std::__shared_ptr.12"** %this.addr, align 8
  %_M_refcount = getelementptr inbounds %"class.std::__shared_ptr.12", %"class.std::__shared_ptr.12"* %this1, i32 0, i32 1
  call void @_ZNSt14__shared_countILN9__gnu_cxx12_Lock_policyE2EED2Ev(%"class.std::__shared_count"* nonnull align 8 dereferenceable(8) %_M_refcount) #3
  ret void
}

; Function Attrs: noinline nounwind optnone uwtable
define linkonce_odr dso_local void @_ZN2cl4sycl8accessorIfLi1ELNS0_6access4modeE1024ELNS2_6targetE2018ELNS2_11placeholderE0ENS0_6ONEAPI22accessor_property_listIJEEEED2Ev(%"class.cl::sycl::accessor"* nonnull align 8 dereferenceable(32) %this) unnamed_addr #6 comdat align 2 {
entry:
  %this.addr = alloca %"class.cl::sycl::accessor"*, align 8
  store %"class.cl::sycl::accessor"* %this, %"class.cl::sycl::accessor"** %this.addr, align 8
  %this1 = load %"class.cl::sycl::accessor"*, %"class.cl::sycl::accessor"** %this.addr, align 8
  %0 = bitcast %"class.cl::sycl::accessor"* %this1 to %"class.cl::sycl::detail::AccessorBaseHost"*
  call void @_ZN2cl4sycl6detail16AccessorBaseHostD2Ev(%"class.cl::sycl::detail::AccessorBaseHost"* nonnull align 8 dereferenceable(16) %0) #3
  ret void
}

; Function Attrs: noinline nounwind optnone uwtable
define linkonce_odr dso_local void @_ZN2cl4sycl6detail16AccessorBaseHostD2Ev(%"class.cl::sycl::detail::AccessorBaseHost"* nonnull align 8 dereferenceable(16) %this) unnamed_addr #6 comdat align 2 {
entry:
  %this.addr = alloca %"class.cl::sycl::detail::AccessorBaseHost"*, align 8
  store %"class.cl::sycl::detail::AccessorBaseHost"* %this, %"class.cl::sycl::detail::AccessorBaseHost"** %this.addr, align 8
  %this1 = load %"class.cl::sycl::detail::AccessorBaseHost"*, %"class.cl::sycl::detail::AccessorBaseHost"** %this.addr, align 8
  %impl = getelementptr inbounds %"class.cl::sycl::detail::AccessorBaseHost", %"class.cl::sycl::detail::AccessorBaseHost"* %this1, i32 0, i32 0
  call void @_ZNSt10shared_ptrIN2cl4sycl6detail16AccessorImplHostEED2Ev(%"class.std::shared_ptr.20"* nonnull align 8 dereferenceable(16) %impl) #3
  ret void
}

; Function Attrs: noinline nounwind optnone uwtable
define linkonce_odr dso_local void @_ZNSt10shared_ptrIN2cl4sycl6detail16AccessorImplHostEED2Ev(%"class.std::shared_ptr.20"* nonnull align 8 dereferenceable(16) %this) unnamed_addr #6 comdat align 2 {
entry:
  %this.addr = alloca %"class.std::shared_ptr.20"*, align 8
  store %"class.std::shared_ptr.20"* %this, %"class.std::shared_ptr.20"** %this.addr, align 8
  %this1 = load %"class.std::shared_ptr.20"*, %"class.std::shared_ptr.20"** %this.addr, align 8
  %0 = bitcast %"class.std::shared_ptr.20"* %this1 to %"class.std::__shared_ptr.21"*
  call void @_ZNSt12__shared_ptrIN2cl4sycl6detail16AccessorImplHostELN9__gnu_cxx12_Lock_policyE2EED2Ev(%"class.std::__shared_ptr.21"* nonnull align 8 dereferenceable(16) %0) #3
  ret void
}

; Function Attrs: noinline nounwind optnone uwtable
define linkonce_odr dso_local void @_ZNSt10shared_ptrIN2cl4sycl6detail11buffer_implEED2Ev(%"class.std::shared_ptr.3"* nonnull align 8 dereferenceable(16) %this) unnamed_addr #6 comdat align 2 {
entry:
  %this.addr = alloca %"class.std::shared_ptr.3"*, align 8
  store %"class.std::shared_ptr.3"* %this, %"class.std::shared_ptr.3"** %this.addr, align 8
  %this1 = load %"class.std::shared_ptr.3"*, %"class.std::shared_ptr.3"** %this.addr, align 8
  %0 = bitcast %"class.std::shared_ptr.3"* %this1 to %"class.std::__shared_ptr.4"*
  call void @_ZNSt12__shared_ptrIN2cl4sycl6detail11buffer_implELN9__gnu_cxx12_Lock_policyE2EED2Ev(%"class.std::__shared_ptr.4"* nonnull align 8 dereferenceable(16) %0) #3
  ret void
}

; Function Attrs: noinline nounwind optnone uwtable
define linkonce_odr dso_local void @_ZNSt10shared_ptrIN2cl4sycl6detail10queue_implEED2Ev(%"class.std::shared_ptr"* nonnull align 8 dereferenceable(16) %this) unnamed_addr #6 comdat align 2 {
entry:
  %this.addr = alloca %"class.std::shared_ptr"*, align 8
  store %"class.std::shared_ptr"* %this, %"class.std::shared_ptr"** %this.addr, align 8
  %this1 = load %"class.std::shared_ptr"*, %"class.std::shared_ptr"** %this.addr, align 8
  %0 = bitcast %"class.std::shared_ptr"* %this1 to %"class.std::__shared_ptr"*
  call void @_ZNSt12__shared_ptrIN2cl4sycl6detail10queue_implELN9__gnu_cxx12_Lock_policyE2EED2Ev(%"class.std::__shared_ptr"* nonnull align 8 dereferenceable(16) %0) #3
  ret void
}

; Function Attrs: noinline nounwind optnone uwtable
define linkonce_odr dso_local void @_ZNSt12__shared_ptrIN2cl4sycl6detail10queue_implELN9__gnu_cxx12_Lock_policyE2EED2Ev(%"class.std::__shared_ptr"* nonnull align 8 dereferenceable(16) %this) unnamed_addr #6 comdat align 2 {
entry:
  %this.addr = alloca %"class.std::__shared_ptr"*, align 8
  store %"class.std::__shared_ptr"* %this, %"class.std::__shared_ptr"** %this.addr, align 8
  %this1 = load %"class.std::__shared_ptr"*, %"class.std::__shared_ptr"** %this.addr, align 8
  %_M_refcount = getelementptr inbounds %"class.std::__shared_ptr", %"class.std::__shared_ptr"* %this1, i32 0, i32 1
  call void @_ZNSt14__shared_countILN9__gnu_cxx12_Lock_policyE2EED2Ev(%"class.std::__shared_count"* nonnull align 8 dereferenceable(8) %_M_refcount) #3
  ret void
}

; Function Attrs: noinline nounwind optnone uwtable
define linkonce_odr dso_local void @_ZN2cl4sycl15device_selectorD2Ev(%"class.cl::sycl::device_selector"* nonnull align 8 dereferenceable(8) %this) unnamed_addr #6 comdat align 2 {
entry:
  %this.addr = alloca %"class.cl::sycl::device_selector"*, align 8
  store %"class.cl::sycl::device_selector"* %this, %"class.cl::sycl::device_selector"** %this.addr, align 8
  %this1 = load %"class.cl::sycl::device_selector"*, %"class.cl::sycl::device_selector"** %this.addr, align 8
  ret void
}

; Function Attrs: noinline nounwind optnone uwtable
define linkonce_odr dso_local void @_ZN2cl4sycl6detail5arrayILi1EEC2ILi1EEENSt9enable_ifIXeqT_Li1EEmE4typeE(%"class.cl::sycl::detail::array"* nonnull align 8 dereferenceable(8) %this, i64 %dim0) unnamed_addr #6 comdat align 2 {
entry:
  %this.addr = alloca %"class.cl::sycl::detail::array"*, align 8
  %dim0.addr = alloca i64, align 8
  store %"class.cl::sycl::detail::array"* %this, %"class.cl::sycl::detail::array"** %this.addr, align 8
  store i64 %dim0, i64* %dim0.addr, align 8
  %this1 = load %"class.cl::sycl::detail::array"*, %"class.cl::sycl::detail::array"** %this.addr, align 8
  %common_array = getelementptr inbounds %"class.cl::sycl::detail::array", %"class.cl::sycl::detail::array"* %this1, i32 0, i32 0
  %arrayinit.begin = getelementptr inbounds [1 x i64], [1 x i64]* %common_array, i64 0, i64 0
  %0 = load i64, i64* %dim0.addr, align 8
  store i64 %0, i64* %arrayinit.begin, align 8
  ret void
}

; Function Attrs: noinline nounwind optnone uwtable
define linkonce_odr dso_local void @_ZNSt6bitsetILm32EEC2Ey(%"class.std::bitset"* nonnull align 8 dereferenceable(8) %this, i64 %__val) unnamed_addr #6 comdat align 2 personality i8* bitcast (i32 (...)* @__gxx_personality_v0 to i8*) {
entry:
  %this.addr = alloca %"class.std::bitset"*, align 8
  %__val.addr = alloca i64, align 8
  store %"class.std::bitset"* %this, %"class.std::bitset"** %this.addr, align 8
  store i64 %__val, i64* %__val.addr, align 8
  %this1 = load %"class.std::bitset"*, %"class.std::bitset"** %this.addr, align 8
  %0 = bitcast %"class.std::bitset"* %this1 to %"struct.std::_Base_bitset"*
  %1 = load i64, i64* %__val.addr, align 8
  %call = invoke i64 @_ZNSt13_Sanitize_valILm32ELb1EE18_S_do_sanitize_valEy(i64 %1)
          to label %invoke.cont unwind label %terminate.lpad

invoke.cont:                                      ; preds = %entry
  call void @_ZNSt12_Base_bitsetILm1EEC2Ey(%"struct.std::_Base_bitset"* nonnull align 8 dereferenceable(8) %0, i64 %call) #3
  ret void

terminate.lpad:                                   ; preds = %entry
  %2 = landingpad { i8*, i32 }
          catch i8* null
  %3 = extractvalue { i8*, i32 } %2, 0
  call void @__clang_call_terminate(i8* %3) #19
  unreachable
}

; Function Attrs: noinline nounwind optnone uwtable
define linkonce_odr dso_local void @_ZN2cl4sycl6detail16PropertyListBaseC2ESt6bitsetILm32EE(%"class.cl::sycl::detail::PropertyListBase"* nonnull align 8 dereferenceable(32) %this, i64 %DataLessProps.coerce) unnamed_addr #6 comdat align 2 {
entry:
  %DataLessProps = alloca %"class.std::bitset", align 8
  %this.addr = alloca %"class.cl::sycl::detail::PropertyListBase"*, align 8
  %coerce.dive = getelementptr inbounds %"class.std::bitset", %"class.std::bitset"* %DataLessProps, i32 0, i32 0
  %coerce.dive1 = getelementptr inbounds %"struct.std::_Base_bitset", %"struct.std::_Base_bitset"* %coerce.dive, i32 0, i32 0
  store i64 %DataLessProps.coerce, i64* %coerce.dive1, align 8
  store %"class.cl::sycl::detail::PropertyListBase"* %this, %"class.cl::sycl::detail::PropertyListBase"** %this.addr, align 8
  %this2 = load %"class.cl::sycl::detail::PropertyListBase"*, %"class.cl::sycl::detail::PropertyListBase"** %this.addr, align 8
  %MDataLessProps = getelementptr inbounds %"class.cl::sycl::detail::PropertyListBase", %"class.cl::sycl::detail::PropertyListBase"* %this2, i32 0, i32 0
  %0 = bitcast %"class.std::bitset"* %MDataLessProps to i8*
  %1 = bitcast %"class.std::bitset"* %DataLessProps to i8*
  call void @llvm.memcpy.p0i8.p0i8.i64(i8* align 8 %0, i8* align 8 %1, i64 8, i1 false)
  %MPropsWithData = getelementptr inbounds %"class.cl::sycl::detail::PropertyListBase", %"class.cl::sycl::detail::PropertyListBase"* %this2, i32 0, i32 1
  call void @_ZNSt6vectorISt10shared_ptrIN2cl4sycl6detail20PropertyWithDataBaseEESaIS5_EEC2Ev(%"class.std::vector"* nonnull align 8 dereferenceable(24) %MPropsWithData) #3
  ret void
}

; Function Attrs: noinline nounwind optnone uwtable mustprogress
define linkonce_odr dso_local void @_ZN2cl4sycl6detail16PropertyListBase10ctorHelperEv(%"class.cl::sycl::detail::PropertyListBase"* nonnull align 8 dereferenceable(32) %this) #4 comdat align 2 {
entry:
  %this.addr = alloca %"class.cl::sycl::detail::PropertyListBase"*, align 8
  store %"class.cl::sycl::detail::PropertyListBase"* %this, %"class.cl::sycl::detail::PropertyListBase"** %this.addr, align 8
  %this1 = load %"class.cl::sycl::detail::PropertyListBase"*, %"class.cl::sycl::detail::PropertyListBase"** %this.addr, align 8
  ret void
}

; Function Attrs: noinline nounwind optnone uwtable mustprogress
define linkonce_odr dso_local i64 @_ZNSt13_Sanitize_valILm32ELb1EE18_S_do_sanitize_valEy(i64 %__val) #4 comdat align 2 {
entry:
  %__val.addr = alloca i64, align 8
  store i64 %__val, i64* %__val.addr, align 8
  %0 = load i64, i64* %__val.addr, align 8
  %and = and i64 %0, 4294967295
  ret i64 %and
}

; Function Attrs: noinline nounwind optnone uwtable
define linkonce_odr dso_local void @_ZNSt12_Base_bitsetILm1EEC2Ey(%"struct.std::_Base_bitset"* nonnull align 8 dereferenceable(8) %this, i64 %__val) unnamed_addr #6 comdat align 2 {
entry:
  %this.addr = alloca %"struct.std::_Base_bitset"*, align 8
  %__val.addr = alloca i64, align 8
  store %"struct.std::_Base_bitset"* %this, %"struct.std::_Base_bitset"** %this.addr, align 8
  store i64 %__val, i64* %__val.addr, align 8
  %this1 = load %"struct.std::_Base_bitset"*, %"struct.std::_Base_bitset"** %this.addr, align 8
  %_M_w = getelementptr inbounds %"struct.std::_Base_bitset", %"struct.std::_Base_bitset"* %this1, i32 0, i32 0
  %0 = load i64, i64* %__val.addr, align 8
  store i64 %0, i64* %_M_w, align 8
  ret void
}

; Function Attrs: argmemonly nofree nounwind willreturn
declare void @llvm.memcpy.p0i8.p0i8.i64(i8* noalias nocapture writeonly, i8* noalias nocapture readonly, i64, i1 immarg) #11

; Function Attrs: noinline nounwind optnone uwtable
define linkonce_odr dso_local void @_ZNSt6vectorISt10shared_ptrIN2cl4sycl6detail20PropertyWithDataBaseEESaIS5_EEC2Ev(%"class.std::vector"* nonnull align 8 dereferenceable(24) %this) unnamed_addr #6 comdat align 2 {
entry:
  %this.addr = alloca %"class.std::vector"*, align 8
  store %"class.std::vector"* %this, %"class.std::vector"** %this.addr, align 8
  %this1 = load %"class.std::vector"*, %"class.std::vector"** %this.addr, align 8
  %0 = bitcast %"class.std::vector"* %this1 to %"struct.std::_Vector_base"*
  call void @_ZNSt12_Vector_baseISt10shared_ptrIN2cl4sycl6detail20PropertyWithDataBaseEESaIS5_EEC2Ev(%"struct.std::_Vector_base"* nonnull align 8 dereferenceable(24) %0) #3
  ret void
}

; Function Attrs: noinline nounwind optnone uwtable
define linkonce_odr dso_local void @_ZNSt12_Vector_baseISt10shared_ptrIN2cl4sycl6detail20PropertyWithDataBaseEESaIS5_EEC2Ev(%"struct.std::_Vector_base"* nonnull align 8 dereferenceable(24) %this) unnamed_addr #6 comdat align 2 {
entry:
  %this.addr = alloca %"struct.std::_Vector_base"*, align 8
  store %"struct.std::_Vector_base"* %this, %"struct.std::_Vector_base"** %this.addr, align 8
  %this1 = load %"struct.std::_Vector_base"*, %"struct.std::_Vector_base"** %this.addr, align 8
  %_M_impl = getelementptr inbounds %"struct.std::_Vector_base", %"struct.std::_Vector_base"* %this1, i32 0, i32 0
  call void @_ZNSt12_Vector_baseISt10shared_ptrIN2cl4sycl6detail20PropertyWithDataBaseEESaIS5_EE12_Vector_implC2Ev(%"struct.std::_Vector_base<std::shared_ptr<cl::sycl::detail::PropertyWithDataBase>, std::allocator<std::shared_ptr<cl::sycl::detail::PropertyWithDataBase>>>::_Vector_impl"* nonnull align 8 dereferenceable(24) %_M_impl) #3
  ret void
}

; Function Attrs: noinline nounwind optnone uwtable
